Certificate:
    Data:
        Version: 3 (0x2)
        Serial Number:
            40:d3:9d:19:e1:36:94:5b:0f:c0:2e:f0:08:b6:e7:9f
        Signature Algorithm: sha256WithRSAEncryption
        Issuer: CN=boyson
        Validity
            Not Before: Feb 28 08:42:00 2023 GMT
            Not After : Jun  2 08:42:00 2025 GMT
        Subject: CN=pongsatorn_sawangklao
        Subject Public Key Info:
            Public Key Algorithm: rsaEncryption
                RSA Public-Key: (2048 bit)
                Modulus:
                    00:bf:01:b3:91:98:50:82:56:cc:82:59:4a:08:28:
                    65:f1:bf:cc:e0:f9:08:84:fe:ea:cd:e9:4d:77:bb:
                    2c:8f:26:79:20:16:98:28:42:6f:e6:9f:2a:f4:d5:
                    d7:4d:19:72:d8:c3:b7:41:59:2d:2c:8a:c8:f8:5f:
                    0e:b3:9e:09:f2:e1:2c:bf:d3:0f:81:9c:63:82:dc:
                    99:99:f8:95:df:aa:6e:0f:72:6e:66:bc:26:01:42:
                    85:a1:e0:0b:d3:fe:74:27:f0:67:9a:ee:8b:bd:a3:
                    32:9d:9f:b2:68:7d:df:df:78:b8:9d:73:fe:f9:76:
                    02:55:0f:07:d4:9d:01:b7:77:77:a1:49:38:cc:30:
                    72:93:52:1c:51:52:0a:c5:3d:d9:b4:39:bd:8e:40:
                    e0:d0:bf:35:13:99:58:ad:76:6e:d1:ed:d5:ae:30:
                    30:37:84:7e:5a:14:b1:68:03:e4:e2:6f:0e:80:c9:
                    16:4e:db:78:ef:bd:bd:06:8f:ef:9c:d5:16:c0:fd:
                    40:d6:e9:4c:79:63:bd:89:7e:1e:12:98:83:7a:e3:
                    c5:e2:89:c1:54:57:b8:ab:66:b6:54:42:06:c6:2e:
                    37:18:c2:d1:4b:1a:54:19:09:4f:57:57:23:12:8f:
                    74:9f:62:d4:cf:ff:a2:45:30:ff:72:74:73:85:7c:
                    b2:fd
                Exponent: 65537 (0x10001)
        X509v3 extensions:
            X509v3 Basic Constraints: 
                CA:FALSE
            X509v3 Subject Key Identifier: 
                66:EA:B4:0B:CB:66:EF:41:5E:6F:6A:98:84:28:FC:CD:87:6F:95:3A
            X509v3 Authority Key Identifier: 
                keyid:FF:1F:1F:0E:F4:6E:BB:36:63:FF:5E:9A:F1:3B:D6:4F:78:0D:A1:80
                DirName:/CN=boyson
                serial:07:CD:EA:4E:7F:98:34:2C:F6:34:76:E0:5C:91:D7:70:FC:23:97:B7

            X509v3 Extended Key Usage: 
                TLS Web Client Authentication
            X509v3 Key Usage: 
                Digital Signature
    Signature Algorithm: sha256WithRSAEncryption
         89:5d:71:f4:e6:b8:85:59:1a:4d:75:33:1f:96:8b:10:ef:c4:
         ea:c4:8b:e9:be:bb:22:c4:f0:e2:d1:59:c2:ad:97:31:55:51:
         10:6a:b0:af:4b:89:8f:ba:62:5e:dd:b5:8a:78:85:f9:cd:15:
         e4:00:ef:0f:38:9b:14:fd:46:80:a3:cc:75:46:15:cc:3e:ed:
         1c:fe:f8:01:53:35:bb:e8:49:d2:6a:da:e2:c9:ba:5d:a7:df:
         7b:4f:42:9f:51:4e:3d:02:9c:b5:ba:8f:a1:82:55:26:15:5d:
         b0:d3:9d:c7:5f:29:26:8f:55:91:93:30:5e:87:22:ee:89:fe:
         ac:71:60:59:21:61:9b:bc:de:64:ee:93:a5:ba:71:96:ad:2c:
         b6:49:47:79:e5:90:78:a0:e8:49:e0:6c:83:d8:cf:a6:0b:18:
         85:e0:9a:92:89:f8:52:34:cd:bd:d9:27:67:4c:34:da:57:42:
         ea:7c:61:e7:90:ae:8b:a8:6e:2c:bb:6d:b6:62:63:b5:7f:81:
         5c:21:64:0b:ec:13:d0:7e:3b:1d:be:80:32:2e:40:c3:44:b0:
         84:cb:91:e3:91:a2:af:5e:eb:15:8a:db:73:bc:37:00:7c:48:
         11:29:d6:b8:84:59:82:ec:1c:ff:6b:68:f7:d6:ab:5d:61:0d:
         31:bb:a0:73
-----BEGIN CERTIFICATE-----
MIIDWTCCAkGgAwIBAgIQQNOdGeE2lFsPwC7wCLbnnzANBgkqhkiG9w0BAQsFADAR
MQ8wDQYDVQQDDAZib3lzb24wHhcNMjMwMjI4MDg0MjAwWhcNMjUwNjAyMDg0MjAw
WjAgMR4wHAYDVQQDDBVwb25nc2F0b3JuX3Nhd2FuZ2tsYW8wggEiMA0GCSqGSIb3
DQEBAQUAA4IBDwAwggEKAoIBAQC/AbORmFCCVsyCWUoIKGXxv8zg+QiE/urN6U13
uyyPJnkgFpgoQm/mnyr01ddNGXLYw7dBWS0sisj4Xw6zngny4Sy/0w+BnGOC3JmZ
+JXfqm4Pcm5mvCYBQoWh4AvT/nQn8Gea7ou9ozKdn7Jofd/feLidc/75dgJVDwfU
nQG3d3ehSTjMMHKTUhxRUgrFPdm0Ob2OQODQvzUTmVitdm7R7dWuMDA3hH5aFLFo
A+Tibw6AyRZO23jvvb0Gj++c1RbA/UDW6Ux5Y72Jfh4SmIN648XiicFUV7irZrZU
QgbGLjcYwtFLGlQZCU9XVyMSj3SfYtTP/6JFMP9ydHOFfLL9AgMBAAGjgZ0wgZow
CQYDVR0TBAIwADAdBgNVHQ4EFgQUZuq0C8tm70Feb2qYhCj8zYdvlTowTAYDVR0j
BEUwQ4AU/x8fDvRuuzZj/16a8TvWT3gNoYChFaQTMBExDzANBgNVBAMMBmJveXNv
boIUB83qTn+YNCz2NHbgXJHXcPwjl7cwEwYDVR0lBAwwCgYIKwYBBQUHAwIwCwYD
VR0PBAQDAgeAMA0GCSqGSIb3DQEBCwUAA4IBAQCJXXH05riFWRpNdTMflosQ78Tq
xIvpvrsixPDi0VnCrZcxVVEQarCvS4mPumJe3bWKeIX5zRXkAO8POJsU/UaAo8x1
RhXMPu0c/vgBUzW76EnSatriybpdp997T0KfUU49Apy1uo+hglUmFV2w053HXykm
j1WRkzBehyLuif6scWBZIWGbvN5k7pOlunGWrSy2SUd55ZB4oOhJ4GyD2M+mCxiF
4JqSifhSNM292SdnTDTaV0LqfGHnkK6LqG4su222YmO1f4FcIWQL7BPQfjsdvoAy
LkDDRLCEy5HjkaKvXusVittzvDcAfEgRKda4hFmC7Bz/a2j31qtdYQ0xu6Bz
-----END CERTIFICATE-----
