Certificate:
    Data:
        Version: 3 (0x2)
        Serial Number:
            b3:e5:fd:94:65:08:9f:56:ee:c0:2d:83:c6:cc:57:f0
        Signature Algorithm: sha256WithRSAEncryption
        Issuer: CN=boyson
        Validity
            Not Before: Feb 28 08:44:58 2023 GMT
            Not After : Jun  2 08:44:58 2025 GMT
        Subject: CN=pongsatorn_sawangklao
        Subject Public Key Info:
            Public Key Algorithm: rsaEncryption
                RSA Public-Key: (2048 bit)
                Modulus:
                    00:c2:48:c7:46:e6:af:25:3f:51:a7:8e:a6:d4:a8:
                    7e:5e:ad:9b:f3:26:0f:fc:c8:c2:8a:09:66:01:25:
                    14:cd:b4:d5:3b:9c:84:83:6a:d8:13:02:05:1a:93:
                    2a:42:ef:4e:c3:e3:5d:6e:cc:aa:29:b4:74:f6:8c:
                    38:c0:0c:fd:08:26:27:c6:08:9e:12:06:b6:27:5f:
                    9d:3d:16:08:20:66:c9:a0:10:85:9f:f0:01:2f:5d:
                    67:31:40:d9:18:42:30:67:b6:80:ad:07:9e:61:85:
                    68:4f:c7:db:e9:5f:aa:4d:7b:46:e5:30:1a:6e:19:
                    1d:90:67:72:6a:cf:d9:78:0b:aa:2e:a4:88:64:24:
                    c3:70:fd:ac:55:54:3a:93:d0:f2:0e:7b:42:4d:01:
                    a2:eb:df:1e:61:70:be:eb:2f:6a:f6:47:1d:af:49:
                    84:cd:d8:b2:e4:1a:7e:de:e1:e6:2d:b4:72:00:73:
                    d4:11:96:83:5c:54:3d:c6:43:b1:ef:82:a2:17:b5:
                    0c:6f:09:39:cb:a4:c4:f6:fa:ad:86:23:1a:71:75:
                    aa:5f:1b:eb:22:32:c5:5c:9d:99:55:dc:69:27:88:
                    2f:31:a6:85:ab:6e:fa:2e:79:32:3e:d3:fd:64:61:
                    d1:f3:62:c9:47:8f:29:45:3e:58:55:18:8c:6b:01:
                    e0:fb
                Exponent: 65537 (0x10001)
        X509v3 extensions:
            X509v3 Basic Constraints: 
                CA:FALSE
            X509v3 Subject Key Identifier: 
                49:B2:79:09:CB:E6:D1:95:68:1B:EF:EA:82:E3:56:A0:43:E7:49:4D
            X509v3 Authority Key Identifier: 
                keyid:FF:1F:1F:0E:F4:6E:BB:36:63:FF:5E:9A:F1:3B:D6:4F:78:0D:A1:80
                DirName:/CN=boyson
                serial:07:CD:EA:4E:7F:98:34:2C:F6:34:76:E0:5C:91:D7:70:FC:23:97:B7

            X509v3 Extended Key Usage: 
                TLS Web Client Authentication
            X509v3 Key Usage: 
                Digital Signature
    Signature Algorithm: sha256WithRSAEncryption
         78:5c:5b:30:ae:63:3a:7c:40:f4:6b:a2:bc:38:fc:dc:9a:1f:
         c0:f8:bf:30:f2:9e:f3:b9:1b:3a:fd:ea:9d:4c:42:1f:b2:32:
         4f:32:a1:db:23:a5:14:ec:be:fd:8e:c6:26:f3:b4:65:79:ec:
         0a:34:fa:0c:a3:d5:94:95:1e:ee:d5:43:44:54:89:29:d3:af:
         aa:a8:ad:bf:86:a9:f1:bf:48:a1:5f:a3:c2:95:f8:14:09:52:
         79:59:0d:2c:c0:34:87:3b:cd:d5:b6:8a:24:5c:35:52:88:42:
         17:78:d9:a5:d6:3d:de:2b:bc:76:92:3a:10:7d:17:9b:63:fa:
         57:d1:98:52:45:9b:de:14:61:ea:a9:02:29:d8:19:03:92:6e:
         56:f7:5e:65:1b:5e:20:1c:c0:b7:b7:41:46:17:a4:42:87:ca:
         cb:bf:de:66:ee:19:76:18:78:48:62:65:3b:b9:27:8e:e6:39:
         31:b1:2c:93:f4:50:4c:17:87:6c:22:98:12:8e:b0:56:50:fa:
         6d:dc:d4:56:8f:6e:cb:c9:b0:fc:8a:a6:14:0f:55:d8:49:20:
         18:b2:4f:f3:56:ea:87:c1:f9:01:30:24:42:18:74:be:6a:45:
         13:d5:a3:db:37:21:eb:be:cb:ad:f4:80:92:8e:5e:a2:9c:34:
         b3:93:eb:94
-----BEGIN CERTIFICATE-----
MIIDWjCCAkKgAwIBAgIRALPl/ZRlCJ9W7sAtg8bMV/AwDQYJKoZIhvcNAQELBQAw
ETEPMA0GA1UEAwwGYm95c29uMB4XDTIzMDIyODA4NDQ1OFoXDTI1MDYwMjA4NDQ1
OFowIDEeMBwGA1UEAwwVcG9uZ3NhdG9ybl9zYXdhbmdrbGFvMIIBIjANBgkqhkiG
9w0BAQEFAAOCAQ8AMIIBCgKCAQEAwkjHRuavJT9Rp46m1Kh+Xq2b8yYP/MjCiglm
ASUUzbTVO5yEg2rYEwIFGpMqQu9Ow+NdbsyqKbR09ow4wAz9CCYnxgieEga2J1+d
PRYIIGbJoBCFn/ABL11nMUDZGEIwZ7aArQeeYYVoT8fb6V+qTXtG5TAabhkdkGdy
as/ZeAuqLqSIZCTDcP2sVVQ6k9DyDntCTQGi698eYXC+6y9q9kcdr0mEzdiy5Bp+
3uHmLbRyAHPUEZaDXFQ9xkOx74KiF7UMbwk5y6TE9vqthiMacXWqXxvrIjLFXJ2Z
VdxpJ4gvMaaFq276LnkyPtP9ZGHR82LJR48pRT5YVRiMawHg+wIDAQABo4GdMIGa
MAkGA1UdEwQCMAAwHQYDVR0OBBYEFEmyeQnL5tGVaBvv6oLjVqBD50lNMEwGA1Ud
IwRFMEOAFP8fHw70brs2Y/9emvE71k94DaGAoRWkEzARMQ8wDQYDVQQDDAZib3lz
b26CFAfN6k5/mDQs9jR24FyR13D8I5e3MBMGA1UdJQQMMAoGCCsGAQUFBwMCMAsG
A1UdDwQEAwIHgDANBgkqhkiG9w0BAQsFAAOCAQEAeFxbMK5jOnxA9GuivDj83Jof
wPi/MPKe87kbOv3qnUxCH7IyTzKh2yOlFOy+/Y7GJvO0ZXnsCjT6DKPVlJUe7tVD
RFSJKdOvqqitv4ap8b9IoV+jwpX4FAlSeVkNLMA0hzvN1baKJFw1UohCF3jZpdY9
3iu8dpI6EH0Xm2P6V9GYUkWb3hRh6qkCKdgZA5JuVvdeZRteIBzAt7dBRhekQofK
y7/eZu4Zdhh4SGJlO7knjuY5MbEsk/RQTBeHbCKYEo6wVlD6bdzUVo9uy8mw/Iqm
FA9V2EkgGLJP81bqh8H5ATAkQhh0vmpFE9Wj2zch677LrfSAko5eopw0s5PrlA==
-----END CERTIFICATE-----
