Certificate:
    Data:
        Version: 3 (0x2)
        Serial Number:
            eb:b3:6c:6b:7a:f6:a1:1b:8c:c4:67:22:cc:46:66:67
        Signature Algorithm: sha256WithRSAEncryption
        Issuer: CN=boyson
        Validity
            Not Before: Feb 28 08:43:46 2023 GMT
            Not After : Jun  2 08:43:46 2025 GMT
        Subject: CN=pongsatorn_sawangklao
        Subject Public Key Info:
            Public Key Algorithm: rsaEncryption
                RSA Public-Key: (2048 bit)
                Modulus:
                    00:d1:1f:b5:9c:4b:8f:77:1e:19:d2:07:f5:80:36:
                    73:6c:84:8f:3a:7a:b9:a1:28:fd:7c:16:8c:0f:a9:
                    16:70:50:ff:df:63:cc:4d:10:22:4e:74:5c:b0:97:
                    59:c6:51:4b:33:9c:23:2d:37:94:36:aa:88:52:f0:
                    7f:2f:99:ba:6a:f3:ce:38:8e:37:61:27:10:51:bb:
                    5f:11:86:47:b7:ff:24:72:9c:3d:25:94:32:bf:53:
                    4f:a8:0c:07:32:2c:64:49:02:7a:f4:d2:7c:aa:46:
                    b1:3d:f4:ca:84:29:31:2a:fa:72:86:17:90:ae:ce:
                    76:90:cc:f5:81:4d:5a:0f:aa:fc:07:02:81:e5:1f:
                    66:e7:f2:6f:d9:a8:44:8f:af:4a:94:02:d3:b0:ca:
                    c6:d3:97:e9:63:90:1d:be:31:a3:f5:bc:2a:c9:01:
                    f0:d7:96:f0:e7:4e:e9:ee:96:ca:06:22:7c:54:fe:
                    61:c2:b6:2e:ea:6f:dd:0c:0d:3e:54:11:39:c1:d6:
                    ef:2d:ae:5c:da:8b:9e:50:99:02:58:e9:57:e1:d7:
                    e8:95:ee:ac:0c:2b:74:89:a6:fb:bc:14:58:22:c5:
                    91:5c:2d:a5:62:87:23:9f:75:f2:04:86:4b:ec:8c:
                    26:da:08:b3:e3:e8:e6:95:16:fa:60:3d:e0:40:91:
                    d0:33
                Exponent: 65537 (0x10001)
        X509v3 extensions:
            X509v3 Basic Constraints: 
                CA:FALSE
            X509v3 Subject Key Identifier: 
                48:72:1D:D6:4E:90:5F:F5:5B:28:FB:4C:80:6B:1A:56:13:BA:BF:E9
            X509v3 Authority Key Identifier: 
                keyid:FF:1F:1F:0E:F4:6E:BB:36:63:FF:5E:9A:F1:3B:D6:4F:78:0D:A1:80
                DirName:/CN=boyson
                serial:07:CD:EA:4E:7F:98:34:2C:F6:34:76:E0:5C:91:D7:70:FC:23:97:B7

            X509v3 Extended Key Usage: 
                TLS Web Client Authentication
            X509v3 Key Usage: 
                Digital Signature
    Signature Algorithm: sha256WithRSAEncryption
         92:47:1f:70:d3:54:89:11:b2:ca:9d:74:ea:0d:9b:6f:59:f0:
         10:d4:c8:02:e0:90:62:8b:d8:b0:6d:8b:2c:42:d8:30:0d:df:
         34:65:05:ba:88:3f:8b:24:ba:49:62:88:f6:7e:e1:c0:b9:43:
         2c:ee:36:70:a3:24:50:ad:0b:a8:f5:5b:00:78:af:5b:03:c4:
         e1:8b:7c:c3:80:88:10:5d:7f:ec:47:d3:5a:97:d0:21:66:80:
         db:c7:97:24:3c:2f:20:06:da:cb:36:d0:5b:5e:ff:0a:a2:43:
         05:d3:43:1f:c3:be:4e:8a:2e:6b:1b:ea:5b:f1:47:13:16:8d:
         b6:0b:85:3f:8a:b1:98:b1:59:f4:a6:9c:e1:01:ec:33:35:6f:
         b5:47:bd:1c:e6:fa:8d:b4:c7:c4:1d:24:7b:13:15:72:8a:a2:
         f3:73:ad:1c:22:9d:9d:a7:b7:a2:ae:bd:0a:6f:77:b6:03:9c:
         dc:6d:ab:fb:80:89:01:60:e6:3e:58:93:15:01:9c:dc:71:23:
         19:0e:f3:1f:3b:a8:60:eb:bd:75:e7:16:8a:35:d2:21:47:80:
         1e:e4:08:a7:e4:9d:11:e2:08:8b:6b:45:5b:44:77:b3:f0:42:
         4b:54:b7:dd:b4:ff:90:67:63:ef:46:4c:4c:96:a1:08:23:28:
         1d:8e:ec:f9
-----BEGIN CERTIFICATE-----
MIIDWjCCAkKgAwIBAgIRAOuzbGt69qEbjMRnIsxGZmcwDQYJKoZIhvcNAQELBQAw
ETEPMA0GA1UEAwwGYm95c29uMB4XDTIzMDIyODA4NDM0NloXDTI1MDYwMjA4NDM0
NlowIDEeMBwGA1UEAwwVcG9uZ3NhdG9ybl9zYXdhbmdrbGFvMIIBIjANBgkqhkiG
9w0BAQEFAAOCAQ8AMIIBCgKCAQEA0R+1nEuPdx4Z0gf1gDZzbISPOnq5oSj9fBaM
D6kWcFD/32PMTRAiTnRcsJdZxlFLM5wjLTeUNqqIUvB/L5m6avPOOI43YScQUbtf
EYZHt/8kcpw9JZQyv1NPqAwHMixkSQJ69NJ8qkaxPfTKhCkxKvpyhheQrs52kMz1
gU1aD6r8BwKB5R9m5/Jv2ahEj69KlALTsMrG05fpY5AdvjGj9bwqyQHw15bw507p
7pbKBiJ8VP5hwrYu6m/dDA0+VBE5wdbvLa5c2oueUJkCWOlX4dfole6sDCt0iab7
vBRYIsWRXC2lYocjn3XyBIZL7Iwm2giz4+jmlRb6YD3gQJHQMwIDAQABo4GdMIGa
MAkGA1UdEwQCMAAwHQYDVR0OBBYEFEhyHdZOkF/1Wyj7TIBrGlYTur/pMEwGA1Ud
IwRFMEOAFP8fHw70brs2Y/9emvE71k94DaGAoRWkEzARMQ8wDQYDVQQDDAZib3lz
b26CFAfN6k5/mDQs9jR24FyR13D8I5e3MBMGA1UdJQQMMAoGCCsGAQUFBwMCMAsG
A1UdDwQEAwIHgDANBgkqhkiG9w0BAQsFAAOCAQEAkkcfcNNUiRGyyp106g2bb1nw
ENTIAuCQYovYsG2LLELYMA3fNGUFuog/iyS6SWKI9n7hwLlDLO42cKMkUK0LqPVb
AHivWwPE4Yt8w4CIEF1/7EfTWpfQIWaA28eXJDwvIAbayzbQW17/CqJDBdNDH8O+
ToouaxvqW/FHExaNtguFP4qxmLFZ9Kac4QHsMzVvtUe9HOb6jbTHxB0kexMVcoqi
83OtHCKdnae3oq69Cm93tgOc3G2r+4CJAWDmPliTFQGc3HEjGQ7zHzuoYOu9decW
ijXSIUeAHuQIp+SdEeIIi2tFW0R3s/BCS1S33bT/kGdj70ZMTJahCCMoHY7s+Q==
-----END CERTIFICATE-----
