Certificate:
    Data:
        Version: 3 (0x2)
        Serial Number:
            04:4e:6b:24:75:21:e8:8e:74:7f:5b:7b:e3:96:94:66
        Signature Algorithm: sha256WithRSAEncryption
        Issuer: CN=boyson
        Validity
            Not Before: Feb 28 08:28:04 2023 GMT
            Not After : Jun  2 08:28:04 2025 GMT
        Subject: CN=Pongsatorn_SAWANGKLAO
        Subject Public Key Info:
            Public Key Algorithm: rsaEncryption
                RSA Public-Key: (2048 bit)
                Modulus:
                    00:c0:7c:16:4a:68:54:b6:84:f4:d3:b5:2b:13:5d:
                    fc:3b:1e:2e:19:89:bd:f3:5f:65:9d:2a:8b:e9:e6:
                    8c:44:b2:0c:fb:19:69:55:83:00:1a:31:7d:0b:61:
                    18:01:67:d4:09:d7:47:a1:22:54:df:5d:37:aa:19:
                    fe:55:0e:d5:84:da:c8:6c:e9:b0:7f:ee:55:53:3c:
                    be:b6:28:6c:bd:a8:7a:a9:d1:d1:33:20:92:3d:51:
                    29:c9:b7:62:82:7e:5f:59:48:19:28:02:50:90:0a:
                    a7:a3:05:7a:14:2f:c7:55:b1:b4:8d:54:3d:23:ee:
                    fe:d6:9a:eb:89:02:cd:ce:3b:72:64:d3:b8:68:0d:
                    0f:a4:df:ef:12:f2:93:5c:86:69:2d:96:b6:cc:e4:
                    18:8b:80:97:41:3b:b9:9c:df:d3:8f:28:b6:7d:ea:
                    60:27:31:b0:53:a4:d5:19:67:b8:25:cc:4c:bb:47:
                    4a:a5:05:f4:5b:9b:2c:1b:96:0f:46:14:d6:b7:5d:
                    48:d1:e4:46:86:92:5d:36:36:ec:fc:02:65:b4:7c:
                    78:02:4a:e2:1d:3e:1d:d6:97:f2:0b:3d:50:97:1e:
                    c5:3b:d1:38:14:92:aa:b5:62:bc:ef:72:41:a2:11:
                    e8:5f:dc:df:88:95:44:a7:2e:8e:b5:76:12:ad:4d:
                    8e:53
                Exponent: 65537 (0x10001)
        X509v3 extensions:
            X509v3 Basic Constraints: 
                CA:FALSE
            X509v3 Subject Key Identifier: 
                C0:99:B0:03:E2:27:CB:92:90:19:1B:17:E2:51:97:E4:5F:9D:C3:78
            X509v3 Authority Key Identifier: 
                keyid:FF:1F:1F:0E:F4:6E:BB:36:63:FF:5E:9A:F1:3B:D6:4F:78:0D:A1:80
                DirName:/CN=boyson
                serial:07:CD:EA:4E:7F:98:34:2C:F6:34:76:E0:5C:91:D7:70:FC:23:97:B7

            X509v3 Extended Key Usage: 
                TLS Web Client Authentication
            X509v3 Key Usage: 
                Digital Signature
    Signature Algorithm: sha256WithRSAEncryption
         3c:23:48:73:42:9c:1a:0c:c6:7f:92:ed:1a:7f:74:c7:db:f6:
         c2:9c:b1:91:61:fc:72:76:1a:ff:19:9e:5c:eb:55:49:bd:a9:
         3f:49:c0:27:d6:0c:35:45:9b:8b:60:f8:5d:9a:1d:f9:26:44:
         a1:9a:53:ca:cf:5e:47:67:7a:50:0d:bc:63:42:f5:04:b0:47:
         b5:9a:d8:0c:88:51:8d:9e:d5:e6:b0:17:8f:08:8a:13:35:6e:
         98:9d:35:58:2e:10:61:aa:55:42:97:eb:06:05:51:85:96:4b:
         79:67:7a:d7:6c:8d:fc:30:de:0f:18:89:4c:4d:0b:74:bb:9a:
         bd:be:ed:f4:2e:e4:03:a6:6e:4a:4d:a2:b7:8c:d8:64:95:0d:
         a9:99:ae:8b:db:86:a6:1b:52:28:d6:e0:5e:c3:f2:3c:63:8d:
         f0:15:0c:33:6b:91:a5:e8:44:0f:71:33:63:d3:dd:8e:14:8e:
         1e:3f:35:1a:19:60:d6:c1:84:c0:11:41:db:7f:33:f0:3b:1a:
         1f:77:11:3e:8a:5d:2b:30:3a:33:9c:56:fd:35:ea:0a:06:32:
         1c:3b:78:c8:fa:e2:80:41:12:be:e9:65:42:c3:c2:f3:f0:bd:
         b1:15:a3:6d:71:10:be:98:f4:a9:44:fb:4c:f6:5e:a5:9f:4c:
         46:92:64:ce
-----BEGIN CERTIFICATE-----
MIIDWTCCAkGgAwIBAgIQBE5rJHUh6I50f1t745aUZjANBgkqhkiG9w0BAQsFADAR
MQ8wDQYDVQQDDAZib3lzb24wHhcNMjMwMjI4MDgyODA0WhcNMjUwNjAyMDgyODA0
WjAgMR4wHAYDVQQDDBVQb25nc2F0b3JuX1NBV0FOR0tMQU8wggEiMA0GCSqGSIb3
DQEBAQUAA4IBDwAwggEKAoIBAQDAfBZKaFS2hPTTtSsTXfw7Hi4Zib3zX2WdKovp
5oxEsgz7GWlVgwAaMX0LYRgBZ9QJ10ehIlTfXTeqGf5VDtWE2shs6bB/7lVTPL62
KGy9qHqp0dEzIJI9USnJt2KCfl9ZSBkoAlCQCqejBXoUL8dVsbSNVD0j7v7WmuuJ
As3OO3Jk07hoDQ+k3+8S8pNchmktlrbM5BiLgJdBO7mc39OPKLZ96mAnMbBTpNUZ
Z7glzEy7R0qlBfRbmywblg9GFNa3XUjR5EaGkl02Nuz8AmW0fHgCSuIdPh3Wl/IL
PVCXHsU70TgUkqq1YrzvckGiEehf3N+IlUSnLo61dhKtTY5TAgMBAAGjgZ0wgZow
CQYDVR0TBAIwADAdBgNVHQ4EFgQUwJmwA+Iny5KQGRsX4lGX5F+dw3gwTAYDVR0j
BEUwQ4AU/x8fDvRuuzZj/16a8TvWT3gNoYChFaQTMBExDzANBgNVBAMMBmJveXNv
boIUB83qTn+YNCz2NHbgXJHXcPwjl7cwEwYDVR0lBAwwCgYIKwYBBQUHAwIwCwYD
VR0PBAQDAgeAMA0GCSqGSIb3DQEBCwUAA4IBAQA8I0hzQpwaDMZ/ku0af3TH2/bC
nLGRYfxydhr/GZ5c61VJvak/ScAn1gw1RZuLYPhdmh35JkShmlPKz15HZ3pQDbxj
QvUEsEe1mtgMiFGNntXmsBePCIoTNW6YnTVYLhBhqlVCl+sGBVGFlkt5Z3rXbI38
MN4PGIlMTQt0u5q9vu30LuQDpm5KTaK3jNhklQ2pma6L24amG1Io1uBew/I8Y43w
FQwza5Gl6EQPcTNj092OFI4ePzUaGWDWwYTAEUHbfzPwOxofdxE+il0rMDoznFb9
NeoKBjIcO3jI+uKAQRK+6WVCw8Lz8L2xFaNtcRC+mPSpRPtM9l6ln0xGkmTO
-----END CERTIFICATE-----
