Certificate:
    Data:
        Version: 3 (0x2)
        Serial Number:
            15:e7:c4:ee:99:6d:5c:6a:a6:9f:15:b6:1e:fd:96:e0
        Signature Algorithm: sha256WithRSAEncryption
        Issuer: CN=boyson
        Validity
            Not Before: Feb 24 16:25:51 2023 GMT
            Not After : May 29 16:25:51 2025 GMT
        Subject: CN=Pongsatorn_SAWANGKLAO
        Subject Public Key Info:
            Public Key Algorithm: rsaEncryption
                RSA Public-Key: (2048 bit)
                Modulus:
                    00:dd:60:d0:b6:7d:f4:ac:f6:6f:ad:52:1e:34:27:
                    03:0d:4c:58:5d:63:65:d3:ac:c7:a6:c5:4c:07:d5:
                    b6:82:dc:86:c5:39:44:55:3e:ce:c5:6b:ed:4c:9c:
                    3a:f1:a3:c2:5a:0f:a9:d9:a5:ed:11:bc:5e:1c:64:
                    69:d4:aa:e9:40:6b:fb:b5:e7:88:f8:d4:6d:74:11:
                    6c:21:ea:10:4d:da:34:fe:bb:13:6c:cc:68:ab:6c:
                    ee:05:ad:8a:07:5a:b7:92:a5:b2:3f:ae:ca:36:67:
                    f9:87:22:df:27:70:41:cd:8e:62:41:d1:2d:11:9e:
                    2c:53:5a:a0:dd:b5:7f:77:da:86:0f:6e:ba:00:cd:
                    64:3f:b0:5e:79:02:7a:95:e3:ed:36:a1:6b:56:70:
                    a1:3c:d2:6a:c7:d5:b6:df:c8:e4:c2:cf:66:89:6b:
                    d2:1d:9f:7a:ef:29:f1:9f:95:f5:85:f4:4a:2b:cf:
                    48:43:f0:b2:88:aa:f5:0b:67:a4:95:ef:b3:ac:40:
                    4e:0c:83:55:5e:5d:cb:af:5e:49:e6:27:37:64:b6:
                    d0:67:a4:c5:a8:6c:73:cd:d1:a5:b4:45:ae:7e:55:
                    a8:23:8b:87:06:2c:5e:31:e1:0b:9d:63:d7:ab:d4:
                    d2:e1:e6:ca:65:d8:4a:e2:74:73:99:01:20:08:69:
                    c0:0f
                Exponent: 65537 (0x10001)
        X509v3 extensions:
            X509v3 Basic Constraints: 
                CA:FALSE
            X509v3 Subject Key Identifier: 
                7A:F2:9A:D8:F9:2D:2B:7F:4B:E8:62:1E:FF:F7:AA:32:E4:81:E2:F6
            X509v3 Authority Key Identifier: 
                keyid:FF:1F:1F:0E:F4:6E:BB:36:63:FF:5E:9A:F1:3B:D6:4F:78:0D:A1:80
                DirName:/CN=boyson
                serial:07:CD:EA:4E:7F:98:34:2C:F6:34:76:E0:5C:91:D7:70:FC:23:97:B7

            X509v3 Extended Key Usage: 
                TLS Web Client Authentication
            X509v3 Key Usage: 
                Digital Signature
    Signature Algorithm: sha256WithRSAEncryption
         37:f4:76:bc:e7:22:90:81:8d:a2:08:da:7b:7e:94:39:ac:53:
         66:c6:26:eb:41:67:f1:94:37:3d:ed:b1:67:36:0b:a1:8a:a2:
         a5:1b:c7:61:8b:ae:68:76:d9:31:59:b5:f8:42:95:bb:f6:e0:
         1c:d6:f2:ac:76:4c:49:4f:57:ca:35:52:52:cc:c3:70:fa:ad:
         ac:75:c3:d5:09:0f:74:cc:ac:aa:2b:4c:60:5d:0c:97:c2:af:
         11:92:e5:1e:7b:9e:45:1c:d9:57:3a:ca:d5:ab:08:b1:44:d1:
         f2:56:5c:7a:c0:e2:ac:4a:f0:36:05:e2:d8:ad:ae:1e:6d:25:
         65:62:6d:e9:e1:ce:a7:4a:02:fd:77:25:8d:a3:49:7c:73:93:
         39:6b:31:4b:a5:69:c7:2e:1d:ed:d2:6d:e2:c4:38:7e:df:ef:
         f6:e7:f0:39:cd:e9:4c:9a:66:c6:26:fc:0d:db:2f:97:d0:e4:
         2e:76:83:9d:42:f2:b7:51:0b:de:32:2a:0c:21:39:4c:3e:c2:
         25:33:25:14:0f:7e:30:79:a0:30:89:30:85:66:e2:2b:ff:96:
         10:e0:eb:81:b8:85:07:65:3a:d6:87:43:86:af:6e:48:14:35:
         68:4b:52:ea:8f:32:ef:8f:5a:6b:de:e8:54:7b:70:6e:b5:c8:
         1d:3e:31:53
-----BEGIN CERTIFICATE-----
MIIDWTCCAkGgAwIBAgIQFefE7pltXGqmnxW2Hv2W4DANBgkqhkiG9w0BAQsFADAR
MQ8wDQYDVQQDDAZib3lzb24wHhcNMjMwMjI0MTYyNTUxWhcNMjUwNTI5MTYyNTUx
WjAgMR4wHAYDVQQDDBVQb25nc2F0b3JuX1NBV0FOR0tMQU8wggEiMA0GCSqGSIb3
DQEBAQUAA4IBDwAwggEKAoIBAQDdYNC2ffSs9m+tUh40JwMNTFhdY2XTrMemxUwH
1baC3IbFOURVPs7Fa+1MnDrxo8JaD6nZpe0RvF4cZGnUqulAa/u154j41G10EWwh
6hBN2jT+uxNszGirbO4FrYoHWreSpbI/rso2Z/mHIt8ncEHNjmJB0S0RnixTWqDd
tX932oYPbroAzWQ/sF55AnqV4+02oWtWcKE80mrH1bbfyOTCz2aJa9Idn3rvKfGf
lfWF9Eorz0hD8LKIqvULZ6SV77OsQE4Mg1VeXcuvXknmJzdkttBnpMWobHPN0aW0
Ra5+Vagji4cGLF4x4QudY9er1NLh5spl2EridHOZASAIacAPAgMBAAGjgZ0wgZow
CQYDVR0TBAIwADAdBgNVHQ4EFgQUevKa2PktK39L6GIe//eqMuSB4vYwTAYDVR0j
BEUwQ4AU/x8fDvRuuzZj/16a8TvWT3gNoYChFaQTMBExDzANBgNVBAMMBmJveXNv
boIUB83qTn+YNCz2NHbgXJHXcPwjl7cwEwYDVR0lBAwwCgYIKwYBBQUHAwIwCwYD
VR0PBAQDAgeAMA0GCSqGSIb3DQEBCwUAA4IBAQA39Ha85yKQgY2iCNp7fpQ5rFNm
xibrQWfxlDc97bFnNguhiqKlG8dhi65odtkxWbX4QpW79uAc1vKsdkxJT1fKNVJS
zMNw+q2sdcPVCQ90zKyqK0xgXQyXwq8RkuUee55FHNlXOsrVqwixRNHyVlx6wOKs
SvA2BeLYra4ebSVlYm3p4c6nSgL9dyWNo0l8c5M5azFLpWnHLh3t0m3ixDh+3+/2
5/A5zelMmmbGJvwN2y+X0OQudoOdQvK3UQveMioMITlMPsIlMyUUD34weaAwiTCF
ZuIr/5YQ4OuBuIUHZTrWh0OGr25IFDVoS1LqjzLvj1pr3uhUe3ButcgdPjFT
-----END CERTIFICATE-----
