Certificate:
    Data:
        Version: 3 (0x2)
        Serial Number:
            19:ca:d2:0d:58:d6:3a:40:49:36:b1:51:d2:3a:c5:e5
        Signature Algorithm: sha256WithRSAEncryption
        Issuer: CN=boyson
        Validity
            Not Before: Feb 23 08:48:38 2023 GMT
            Not After : May 28 08:48:38 2025 GMT
        Subject: CN=Pongsatorn_SAWANGKLAO
        Subject Public Key Info:
            Public Key Algorithm: rsaEncryption
                RSA Public-Key: (2048 bit)
                Modulus:
                    00:cc:74:1f:51:b6:c9:b1:96:0d:eb:22:ed:7c:06:
                    fa:bb:aa:d2:6b:de:8c:e5:dc:07:e8:fe:9b:6d:8a:
                    56:24:2e:91:53:55:39:69:7e:10:19:28:93:8b:59:
                    5d:11:6b:6c:1a:2a:d7:d7:86:29:ec:2d:ba:34:b3:
                    f7:51:bc:b3:79:49:02:68:bd:71:c8:f7:82:36:15:
                    38:f3:de:31:a4:96:e5:84:04:03:e1:45:be:4e:1c:
                    34:4a:1e:5e:1f:7c:1a:f7:a6:13:9e:22:e4:92:e0:
                    2e:3d:2c:fe:93:81:de:39:99:ed:72:c0:5f:00:39:
                    fc:50:82:ca:76:fd:52:01:6d:18:06:ae:c6:24:89:
                    ed:79:b9:75:60:3e:7c:49:97:58:9d:cd:60:fd:f3:
                    ff:61:56:78:f9:7a:ad:90:e4:d3:3b:3e:ca:c3:8d:
                    6b:f6:81:29:82:9c:f4:24:7c:ce:b8:e2:b2:11:69:
                    a1:e5:7c:fc:9c:83:9b:df:27:2f:76:45:0a:07:61:
                    9b:12:66:98:eb:9c:27:a2:85:80:b6:02:72:af:4a:
                    68:ad:f3:cf:53:e8:f8:6b:77:8b:3f:52:f7:c1:84:
                    20:26:81:29:0b:3e:a0:aa:52:d4:8f:48:36:ca:4c:
                    78:e8:86:fe:b5:d6:8a:70:12:48:c0:85:fa:fb:fd:
                    ae:73
                Exponent: 65537 (0x10001)
        X509v3 extensions:
            X509v3 Basic Constraints: 
                CA:FALSE
            X509v3 Subject Key Identifier: 
                BF:85:05:7F:20:7B:E0:14:28:84:7C:E2:CC:AD:7A:39:49:D8:2C:6F
            X509v3 Authority Key Identifier: 
                keyid:FF:1F:1F:0E:F4:6E:BB:36:63:FF:5E:9A:F1:3B:D6:4F:78:0D:A1:80
                DirName:/CN=boyson
                serial:07:CD:EA:4E:7F:98:34:2C:F6:34:76:E0:5C:91:D7:70:FC:23:97:B7

            X509v3 Extended Key Usage: 
                TLS Web Client Authentication
            X509v3 Key Usage: 
                Digital Signature
    Signature Algorithm: sha256WithRSAEncryption
         05:ac:b7:b9:06:da:34:51:2c:1c:84:21:df:b0:48:ad:a9:48:
         4b:7c:69:b8:ce:81:33:6f:29:0c:b6:d4:ed:5d:78:00:bd:9d:
         0d:b0:64:4b:64:8e:87:96:9b:21:2b:83:fd:41:84:7c:52:a3:
         26:a2:65:39:0e:5c:aa:a1:1b:6b:8a:01:92:41:65:38:93:28:
         b8:af:9e:a7:49:5e:c1:ff:49:37:f5:8f:38:37:54:29:e4:ff:
         38:a0:86:7f:9a:76:ca:69:cd:3b:93:51:76:fe:e6:77:e5:dd:
         b2:bc:69:14:9d:aa:fe:af:28:71:e6:52:2e:2c:6a:8d:d8:40:
         39:c8:cc:7a:e5:62:8e:79:8a:1e:fe:9e:10:12:9f:06:a7:44:
         f2:38:9a:3d:9d:84:4b:0e:6b:0c:5a:73:93:1d:65:ed:5c:1e:
         81:c5:30:15:da:ee:a7:2a:96:1d:a3:8c:88:6e:04:e3:df:bf:
         24:44:34:2f:3f:da:6f:16:0e:37:e6:62:20:f5:bf:1a:3f:13:
         2c:75:6a:27:05:a1:ee:9c:e5:38:27:64:5f:7f:3a:30:90:57:
         a7:7e:2d:4e:cc:db:db:9f:b2:1b:93:b3:d3:82:1c:74:0f:e6:
         f1:75:64:d6:65:08:8b:c4:77:9b:e7:85:ff:2f:ee:18:5f:ec:
         fc:94:5d:98
-----BEGIN CERTIFICATE-----
MIIDWTCCAkGgAwIBAgIQGcrSDVjWOkBJNrFR0jrF5TANBgkqhkiG9w0BAQsFADAR
MQ8wDQYDVQQDDAZib3lzb24wHhcNMjMwMjIzMDg0ODM4WhcNMjUwNTI4MDg0ODM4
WjAgMR4wHAYDVQQDDBVQb25nc2F0b3JuX1NBV0FOR0tMQU8wggEiMA0GCSqGSIb3
DQEBAQUAA4IBDwAwggEKAoIBAQDMdB9Rtsmxlg3rIu18Bvq7qtJr3ozl3Afo/ptt
ilYkLpFTVTlpfhAZKJOLWV0Ra2waKtfXhinsLbo0s/dRvLN5SQJovXHI94I2FTjz
3jGkluWEBAPhRb5OHDRKHl4ffBr3phOeIuSS4C49LP6Tgd45me1ywF8AOfxQgsp2
/VIBbRgGrsYkie15uXVgPnxJl1idzWD98/9hVnj5eq2Q5NM7PsrDjWv2gSmCnPQk
fM644rIRaaHlfPycg5vfJy92RQoHYZsSZpjrnCeihYC2AnKvSmit889T6Phrd4s/
UvfBhCAmgSkLPqCqUtSPSDbKTHjohv611opwEkjAhfr7/a5zAgMBAAGjgZ0wgZow
CQYDVR0TBAIwADAdBgNVHQ4EFgQUv4UFfyB74BQohHzizK16OUnYLG8wTAYDVR0j
BEUwQ4AU/x8fDvRuuzZj/16a8TvWT3gNoYChFaQTMBExDzANBgNVBAMMBmJveXNv
boIUB83qTn+YNCz2NHbgXJHXcPwjl7cwEwYDVR0lBAwwCgYIKwYBBQUHAwIwCwYD
VR0PBAQDAgeAMA0GCSqGSIb3DQEBCwUAA4IBAQAFrLe5Bto0USwchCHfsEitqUhL
fGm4zoEzbykMttTtXXgAvZ0NsGRLZI6HlpshK4P9QYR8UqMmomU5DlyqoRtrigGS
QWU4kyi4r56nSV7B/0k39Y84N1Qp5P84oIZ/mnbKac07k1F2/uZ35d2yvGkUnar+
ryhx5lIuLGqN2EA5yMx65WKOeYoe/p4QEp8Gp0TyOJo9nYRLDmsMWnOTHWXtXB6B
xTAV2u6nKpYdo4yIbgTj378kRDQvP9pvFg435mIg9b8aPxMsdWonBaHunOU4J2Rf
fzowkFenfi1OzNvbn7Ibk7PTghx0D+bxdWTWZQiLxHeb54X/L+4YX+z8lF2Y
-----END CERTIFICATE-----
