Certificate:
    Data:
        Version: 3 (0x2)
        Serial Number:
            21:6c:62:6c:e5:1c:a4:0d:46:a9:99:bc:a7:9f:0c:0d
        Signature Algorithm: sha256WithRSAEncryption
        Issuer: CN=boyson
        Validity
            Not Before: Feb 22 09:10:28 2023 GMT
            Not After : May 27 09:10:28 2025 GMT
        Subject: CN=pongsatorn_sawangklao
        Subject Public Key Info:
            Public Key Algorithm: rsaEncryption
                RSA Public-Key: (2048 bit)
                Modulus:
                    00:e8:06:64:fa:c9:52:34:58:c4:ed:fb:a0:60:37:
                    86:d8:21:2a:06:78:54:a0:79:55:f6:dc:b6:11:36:
                    9a:91:84:93:53:25:40:1e:f9:40:a2:3e:1c:92:a8:
                    d4:34:14:68:61:26:ae:22:79:d8:de:b2:11:3c:b9:
                    46:56:f0:f8:68:22:8d:10:66:60:5c:dd:de:08:24:
                    d8:f6:0f:ee:c7:e2:81:b0:e0:62:df:e7:d4:52:03:
                    d7:c6:17:9b:a0:65:aa:f8:e2:f2:d9:2d:4e:cf:db:
                    86:16:68:0f:56:fc:da:12:c3:89:aa:fb:c5:6d:67:
                    ab:57:20:c0:e4:87:14:04:0f:a9:58:4c:96:7f:74:
                    53:1a:ac:b4:96:b5:f7:99:25:00:08:b3:71:a5:9a:
                    a4:bd:7b:fe:23:63:8a:8b:3a:82:ba:e5:01:c5:f9:
                    52:d6:ec:6b:8a:f9:74:bf:10:26:28:59:ae:4f:e6:
                    da:da:0e:4e:de:37:d2:15:fa:d8:79:7d:77:e4:fa:
                    57:be:b2:4d:d6:a5:74:05:e9:32:2e:7e:98:ec:63:
                    91:27:14:62:4c:34:8a:2f:5b:50:13:ca:19:20:5e:
                    57:5e:bf:be:c2:9c:7b:c4:73:05:ea:e7:82:5e:07:
                    be:7c:9a:c5:1c:3f:b7:95:f4:b1:58:8b:29:d0:01:
                    02:0d
                Exponent: 65537 (0x10001)
        X509v3 extensions:
            X509v3 Basic Constraints: 
                CA:FALSE
            X509v3 Subject Key Identifier: 
                13:BF:DD:E5:11:55:32:99:2F:26:5C:DF:27:3F:F8:DE:C0:D6:13:9C
            X509v3 Authority Key Identifier: 
                keyid:FF:1F:1F:0E:F4:6E:BB:36:63:FF:5E:9A:F1:3B:D6:4F:78:0D:A1:80
                DirName:/CN=boyson
                serial:07:CD:EA:4E:7F:98:34:2C:F6:34:76:E0:5C:91:D7:70:FC:23:97:B7

            X509v3 Extended Key Usage: 
                TLS Web Client Authentication
            X509v3 Key Usage: 
                Digital Signature
    Signature Algorithm: sha256WithRSAEncryption
         8d:a5:11:4c:8a:a6:e8:dd:d8:b7:68:6b:c6:79:1c:4b:11:e6:
         2f:ab:84:4f:a8:b2:02:da:03:5b:bf:d0:63:c8:b7:1d:4b:fc:
         46:8a:b7:29:54:4c:58:9a:1b:8a:51:fd:5a:78:01:e3:9e:f1:
         10:df:5c:6b:5d:a4:fc:5f:d3:9f:f1:e6:e9:48:14:60:c7:5a:
         d2:20:54:d9:80:8d:85:ee:35:c6:00:e2:f0:1b:32:92:d1:a1:
         e1:e7:17:a0:c5:4f:24:47:df:49:3f:17:a5:85:81:bc:77:7c:
         b7:db:68:75:cd:76:0b:8b:6e:55:2a:f3:8c:3d:f9:c8:9c:1f:
         d4:03:9f:e4:87:8e:bf:9a:92:cb:b6:0e:3f:1e:63:1c:eb:57:
         18:5f:b4:66:fd:5b:58:08:d4:e4:9e:90:cf:9d:03:53:1c:f2:
         37:e0:54:c0:95:9f:e9:44:8f:be:ec:44:3a:b2:97:62:72:8a:
         7d:cb:09:e4:e9:c1:f1:c0:63:15:d6:ce:2d:bc:8f:a2:54:2a:
         3e:2e:c4:15:7e:f9:ca:eb:61:f4:4d:d1:c9:d6:cd:31:e3:d1:
         b5:08:43:73:a2:a1:93:bc:7c:bb:0c:a6:99:21:5b:7e:63:5a:
         57:69:61:27:d8:ed:e1:f1:7c:d5:85:e1:d4:9c:cc:a9:4e:72:
         21:05:e2:2c
-----BEGIN CERTIFICATE-----
MIIDWTCCAkGgAwIBAgIQIWxibOUcpA1GqZm8p58MDTANBgkqhkiG9w0BAQsFADAR
MQ8wDQYDVQQDDAZib3lzb24wHhcNMjMwMjIyMDkxMDI4WhcNMjUwNTI3MDkxMDI4
WjAgMR4wHAYDVQQDDBVwb25nc2F0b3JuX3Nhd2FuZ2tsYW8wggEiMA0GCSqGSIb3
DQEBAQUAA4IBDwAwggEKAoIBAQDoBmT6yVI0WMTt+6BgN4bYISoGeFSgeVX23LYR
NpqRhJNTJUAe+UCiPhySqNQ0FGhhJq4iedjeshE8uUZW8PhoIo0QZmBc3d4IJNj2
D+7H4oGw4GLf59RSA9fGF5ugZar44vLZLU7P24YWaA9W/NoSw4mq+8VtZ6tXIMDk
hxQED6lYTJZ/dFMarLSWtfeZJQAIs3GlmqS9e/4jY4qLOoK65QHF+VLW7GuK+XS/
ECYoWa5P5traDk7eN9IV+th5fXfk+le+sk3WpXQF6TIufpjsY5EnFGJMNIovW1AT
yhkgXldev77CnHvEcwXq54JeB758msUcP7eV9LFYiynQAQINAgMBAAGjgZ0wgZow
CQYDVR0TBAIwADAdBgNVHQ4EFgQUE7/d5RFVMpkvJlzfJz/43sDWE5wwTAYDVR0j
BEUwQ4AU/x8fDvRuuzZj/16a8TvWT3gNoYChFaQTMBExDzANBgNVBAMMBmJveXNv
boIUB83qTn+YNCz2NHbgXJHXcPwjl7cwEwYDVR0lBAwwCgYIKwYBBQUHAwIwCwYD
VR0PBAQDAgeAMA0GCSqGSIb3DQEBCwUAA4IBAQCNpRFMiqbo3di3aGvGeRxLEeYv
q4RPqLIC2gNbv9BjyLcdS/xGircpVExYmhuKUf1aeAHjnvEQ31xrXaT8X9Of8ebp
SBRgx1rSIFTZgI2F7jXGAOLwGzKS0aHh5xegxU8kR99JPxelhYG8d3y322h1zXYL
i25VKvOMPfnInB/UA5/kh46/mpLLtg4/HmMc61cYX7Rm/VtYCNTknpDPnQNTHPI3
4FTAlZ/pRI++7EQ6spdicop9ywnk6cHxwGMV1s4tvI+iVCo+LsQVfvnK62H0TdHJ
1s0x49G1CENzoqGTvHy7DKaZIVt+Y1pXaWEn2O3h8XzVheHUnMypTnIhBeIs
-----END CERTIFICATE-----
