Certificate:
    Data:
        Version: 3 (0x2)
        Serial Number:
            2d:e1:a8:69:ac:0a:59:19:1e:9a:87:bf:38:a4:e4:e3
        Signature Algorithm: sha256WithRSAEncryption
        Issuer: CN=boyson
        Validity
            Not Before: Feb 21 06:27:01 2023 GMT
            Not After : May 26 06:27:01 2025 GMT
        Subject: CN=pongsatorn_sawangklao
        Subject Public Key Info:
            Public Key Algorithm: rsaEncryption
                RSA Public-Key: (2048 bit)
                Modulus:
                    00:b1:93:2e:66:54:c2:93:6b:14:a1:ed:21:e8:72:
                    b9:db:6e:c9:fc:3e:15:68:da:77:3d:3e:76:1b:c8:
                    0e:bb:d2:b2:93:29:bd:97:d2:ff:58:49:47:45:98:
                    d5:0a:7f:ee:f4:f6:11:01:83:e8:fc:63:2d:c7:d4:
                    af:f5:7b:8b:64:1e:db:66:ff:97:f7:3a:90:2d:2c:
                    d8:66:87:86:21:71:ea:03:c0:91:7d:3f:89:bc:b6:
                    27:5c:11:f5:02:6a:c4:fa:f2:a4:ef:53:63:9c:ab:
                    57:02:d8:18:b3:54:9e:7e:27:b8:73:c2:6c:21:38:
                    bf:ae:e4:2f:8a:50:76:c6:bc:af:b2:ed:8e:24:e0:
                    e7:18:80:5a:71:44:13:21:8c:de:99:b1:7a:e2:b1:
                    e0:fa:b5:7b:71:82:31:11:07:ca:0f:a4:5a:13:9c:
                    79:0f:3c:04:aa:36:29:10:84:be:8b:15:60:12:03:
                    da:8b:62:14:03:fd:f2:9f:95:d5:b3:55:dd:7f:40:
                    c2:1a:90:b9:f0:b0:42:bd:c2:21:03:96:df:7c:a1:
                    52:72:a8:90:df:86:06:f6:1f:43:61:74:65:b1:6e:
                    31:e6:3f:90:3a:31:cd:f6:eb:39:02:f7:7a:cf:9c:
                    6a:1f:a8:a8:a3:21:a0:79:96:11:34:ce:fe:dc:8e:
                    b2:cd
                Exponent: 65537 (0x10001)
        X509v3 extensions:
            X509v3 Basic Constraints: 
                CA:FALSE
            X509v3 Subject Key Identifier: 
                6B:2D:22:65:F9:DD:19:42:73:DE:16:3F:B9:A7:7B:E7:50:40:2B:4C
            X509v3 Authority Key Identifier: 
                keyid:FF:1F:1F:0E:F4:6E:BB:36:63:FF:5E:9A:F1:3B:D6:4F:78:0D:A1:80
                DirName:/CN=boyson
                serial:07:CD:EA:4E:7F:98:34:2C:F6:34:76:E0:5C:91:D7:70:FC:23:97:B7

            X509v3 Extended Key Usage: 
                TLS Web Client Authentication
            X509v3 Key Usage: 
                Digital Signature
    Signature Algorithm: sha256WithRSAEncryption
         73:32:4e:db:9c:ed:a9:20:66:2a:cf:6b:03:c2:7c:c2:30:21:
         e5:4d:8c:1e:e6:eb:b5:43:36:31:3a:dc:ee:68:9b:c1:7b:17:
         df:90:1a:8f:d0:69:44:45:4d:0b:73:6e:4c:d8:73:2b:42:64:
         3b:7d:3b:df:9b:84:e0:fe:54:b4:43:c3:c6:b4:3c:59:55:55:
         3d:7a:57:9f:29:cb:26:96:4e:07:5c:0f:1f:ef:01:02:4a:12:
         81:c6:29:34:f3:37:fa:03:76:c2:f4:e6:8f:42:13:9a:60:82:
         7f:99:64:e8:25:23:c2:9a:9d:72:3f:ff:06:ee:17:ec:d2:f2:
         1f:94:b7:e9:71:7e:29:ae:d1:1b:21:92:76:8c:e8:6f:a9:23:
         fa:71:a6:f7:96:ba:4b:5f:52:f0:d9:a6:bd:7a:a8:fe:32:b4:
         ab:6e:36:08:ca:75:09:66:62:b2:16:11:3c:b0:52:e5:6e:26:
         1b:c6:9a:6f:32:d9:21:e5:dc:90:ec:af:46:f6:b3:d7:aa:f0:
         4e:4d:42:f1:d2:85:0c:7e:f2:08:5c:4d:1b:d5:65:55:1f:4c:
         5e:61:b2:7e:f7:67:36:9c:34:ae:ef:74:f4:e9:80:bd:ea:c8:
         e7:c7:a9:c9:4c:ea:e4:e3:92:45:73:b9:38:e0:a6:e2:4b:d1:
         a5:ce:93:b8
-----BEGIN CERTIFICATE-----
MIIDWTCCAkGgAwIBAgIQLeGoaawKWRkemoe/OKTk4zANBgkqhkiG9w0BAQsFADAR
MQ8wDQYDVQQDDAZib3lzb24wHhcNMjMwMjIxMDYyNzAxWhcNMjUwNTI2MDYyNzAx
WjAgMR4wHAYDVQQDDBVwb25nc2F0b3JuX3Nhd2FuZ2tsYW8wggEiMA0GCSqGSIb3
DQEBAQUAA4IBDwAwggEKAoIBAQCxky5mVMKTaxSh7SHocrnbbsn8PhVo2nc9PnYb
yA670rKTKb2X0v9YSUdFmNUKf+709hEBg+j8Yy3H1K/1e4tkHttm/5f3OpAtLNhm
h4YhceoDwJF9P4m8tidcEfUCasT68qTvU2Ocq1cC2BizVJ5+J7hzwmwhOL+u5C+K
UHbGvK+y7Y4k4OcYgFpxRBMhjN6ZsXriseD6tXtxgjERB8oPpFoTnHkPPASqNikQ
hL6LFWASA9qLYhQD/fKfldWzVd1/QMIakLnwsEK9wiEDlt98oVJyqJDfhgb2H0Nh
dGWxbjHmP5A6Mc326zkC93rPnGofqKijIaB5lhE0zv7cjrLNAgMBAAGjgZ0wgZow
CQYDVR0TBAIwADAdBgNVHQ4EFgQUay0iZfndGUJz3hY/uad751BAK0wwTAYDVR0j
BEUwQ4AU/x8fDvRuuzZj/16a8TvWT3gNoYChFaQTMBExDzANBgNVBAMMBmJveXNv
boIUB83qTn+YNCz2NHbgXJHXcPwjl7cwEwYDVR0lBAwwCgYIKwYBBQUHAwIwCwYD
VR0PBAQDAgeAMA0GCSqGSIb3DQEBCwUAA4IBAQBzMk7bnO2pIGYqz2sDwnzCMCHl
TYwe5uu1QzYxOtzuaJvBexffkBqP0GlERU0Lc25M2HMrQmQ7fTvfm4Tg/lS0Q8PG
tDxZVVU9elefKcsmlk4HXA8f7wECShKBxik08zf6A3bC9OaPQhOaYIJ/mWToJSPC
mp1yP/8G7hfs0vIflLfpcX4prtEbIZJ2jOhvqSP6cab3lrpLX1Lw2aa9eqj+MrSr
bjYIynUJZmKyFhE8sFLlbiYbxppvMtkh5dyQ7K9G9rPXqvBOTULx0oUMfvIIXE0b
1WVVH0xeYbJ+92c2nDSu73T06YC96sjnx6nJTOrk45JFc7k44KbiS9GlzpO4
-----END CERTIFICATE-----
