Certificate:
    Data:
        Version: 3 (0x2)
        Serial Number:
            34:d3:66:fd:1b:fb:7e:dc:7a:00:22:1f:f9:d5:34:fc
        Signature Algorithm: sha256WithRSAEncryption
        Issuer: CN=boyson
        Validity
            Not Before: Feb 22 04:29:23 2023 GMT
            Not After : May 27 04:29:23 2025 GMT
        Subject: CN=pongsatorn_sawangklao
        Subject Public Key Info:
            Public Key Algorithm: rsaEncryption
                RSA Public-Key: (2048 bit)
                Modulus:
                    00:d9:b9:ea:bf:ff:7b:95:7a:35:4c:b8:9b:2e:c8:
                    87:18:dd:47:a4:2f:79:de:04:e6:9c:b3:85:b3:ce:
                    f9:f4:36:09:32:9b:ee:78:7a:e0:d7:ef:93:95:6e:
                    42:60:33:42:d0:8b:8f:11:f3:2e:2b:47:d8:65:3d:
                    d8:bf:3e:5d:d9:1b:88:fa:ba:83:fc:67:be:f2:d1:
                    62:8d:c8:12:71:aa:5b:bd:84:34:eb:a9:5e:76:53:
                    30:a7:57:5b:a4:fe:70:47:57:19:b1:66:ca:2b:b9:
                    9b:e7:c3:ff:d7:83:6c:ee:db:1a:d5:f3:a1:e7:9c:
                    be:9e:b8:8f:00:68:e9:37:a9:a5:e7:fa:53:e1:62:
                    7c:32:7f:33:23:7c:31:fd:53:c2:64:ac:aa:4a:a5:
                    b9:d4:e0:13:00:4e:10:27:61:b7:08:d7:84:e2:58:
                    6f:75:0d:ae:3d:cb:73:14:22:35:c9:c4:66:d8:11:
                    43:85:7d:c5:62:7a:71:bc:24:92:c5:bf:0a:28:2b:
                    af:15:15:d5:be:00:b7:bc:59:58:9a:e1:76:14:24:
                    c9:74:7b:6b:02:38:ed:8f:cb:b3:d0:56:07:45:68:
                    32:81:47:bd:36:5e:92:87:2c:f8:d5:8c:86:fd:0f:
                    1f:fe:c8:76:79:2e:25:77:da:f6:c6:2d:ab:72:d9:
                    90:d1
                Exponent: 65537 (0x10001)
        X509v3 extensions:
            X509v3 Basic Constraints: 
                CA:FALSE
            X509v3 Subject Key Identifier: 
                52:14:E1:EA:48:CF:8B:56:C2:AA:50:CF:88:82:8B:60:59:6B:DC:86
            X509v3 Authority Key Identifier: 
                keyid:FF:1F:1F:0E:F4:6E:BB:36:63:FF:5E:9A:F1:3B:D6:4F:78:0D:A1:80
                DirName:/CN=boyson
                serial:07:CD:EA:4E:7F:98:34:2C:F6:34:76:E0:5C:91:D7:70:FC:23:97:B7

            X509v3 Extended Key Usage: 
                TLS Web Client Authentication
            X509v3 Key Usage: 
                Digital Signature
    Signature Algorithm: sha256WithRSAEncryption
         94:b1:8f:97:3a:69:d6:6b:45:f1:cf:61:15:5a:27:ed:31:d0:
         bb:0c:4f:33:0b:26:26:9d:a0:c3:c5:5a:5f:fd:f4:99:b2:43:
         25:82:4f:fc:d7:29:bf:db:d9:02:8f:d5:6b:4b:7d:c3:4d:7c:
         20:82:83:42:f6:83:27:ea:94:6f:e5:7a:42:55:2b:fe:60:d6:
         ed:4d:6c:62:c0:f4:e7:f8:bb:33:a9:dc:72:78:6d:54:6c:e8:
         d9:e9:17:9e:c2:84:d5:a3:19:2e:fe:e6:d6:1e:92:d2:40:59:
         79:e4:39:5b:08:32:50:d2:4a:70:da:4d:a8:57:2a:f7:bb:e5:
         ad:42:2f:71:96:3d:98:de:0a:9a:1d:1d:e5:26:1b:7d:e9:f4:
         9a:c2:7d:63:8d:cc:8d:ee:b4:57:8b:fe:5b:f6:63:cd:f8:0a:
         82:c5:cb:8c:b9:0e:1c:38:b6:6f:0b:c4:36:0a:52:74:0f:d6:
         74:67:d7:08:b2:45:ae:26:1c:18:ec:15:03:f3:8e:58:85:f9:
         fa:43:ff:90:8f:4e:ba:9f:b1:40:82:28:6a:17:15:28:b5:b9:
         f9:dd:83:f9:ed:e1:fc:6f:d3:fe:3c:ca:ad:89:7c:95:8c:38:
         8d:d8:bf:62:1e:20:7e:28:09:a6:1f:1f:f0:c6:d7:ea:f1:f5:
         72:26:c1:f8
-----BEGIN CERTIFICATE-----
MIIDWTCCAkGgAwIBAgIQNNNm/Rv7ftx6ACIf+dU0/DANBgkqhkiG9w0BAQsFADAR
MQ8wDQYDVQQDDAZib3lzb24wHhcNMjMwMjIyMDQyOTIzWhcNMjUwNTI3MDQyOTIz
WjAgMR4wHAYDVQQDDBVwb25nc2F0b3JuX3Nhd2FuZ2tsYW8wggEiMA0GCSqGSIb3
DQEBAQUAA4IBDwAwggEKAoIBAQDZueq//3uVejVMuJsuyIcY3UekL3neBOacs4Wz
zvn0Ngkym+54euDX75OVbkJgM0LQi48R8y4rR9hlPdi/Pl3ZG4j6uoP8Z77y0WKN
yBJxqlu9hDTrqV52UzCnV1uk/nBHVxmxZsoruZvnw//Xg2zu2xrV86HnnL6euI8A
aOk3qaXn+lPhYnwyfzMjfDH9U8JkrKpKpbnU4BMAThAnYbcI14TiWG91Da49y3MU
IjXJxGbYEUOFfcVienG8JJLFvwooK68VFdW+ALe8WVia4XYUJMl0e2sCOO2Py7PQ
VgdFaDKBR702XpKHLPjVjIb9Dx/+yHZ5LiV32vbGLaty2ZDRAgMBAAGjgZ0wgZow
CQYDVR0TBAIwADAdBgNVHQ4EFgQUUhTh6kjPi1bCqlDPiIKLYFlr3IYwTAYDVR0j
BEUwQ4AU/x8fDvRuuzZj/16a8TvWT3gNoYChFaQTMBExDzANBgNVBAMMBmJveXNv
boIUB83qTn+YNCz2NHbgXJHXcPwjl7cwEwYDVR0lBAwwCgYIKwYBBQUHAwIwCwYD
VR0PBAQDAgeAMA0GCSqGSIb3DQEBCwUAA4IBAQCUsY+XOmnWa0Xxz2EVWiftMdC7
DE8zCyYmnaDDxVpf/fSZskMlgk/81ym/29kCj9VrS33DTXwggoNC9oMn6pRv5XpC
VSv+YNbtTWxiwPTn+LszqdxyeG1UbOjZ6ReewoTVoxku/ubWHpLSQFl55DlbCDJQ
0kpw2k2oVyr3u+WtQi9xlj2Y3gqaHR3lJht96fSawn1jjcyN7rRXi/5b9mPN+AqC
xcuMuQ4cOLZvC8Q2ClJ0D9Z0Z9cIskWuJhwY7BUD845Yhfn6Q/+Qj066n7FAgihq
FxUotbn53YP57eH8b9P+PMqtiXyVjDiN2L9iHiB+KAmmHx/wxtfq8fVyJsH4
-----END CERTIFICATE-----
