Certificate:
    Data:
        Version: 3 (0x2)
        Serial Number:
            46:58:ae:d0:68:15:33:bc:a6:e1:8a:3b:ca:9e:ec:a0
        Signature Algorithm: sha256WithRSAEncryption
        Issuer: CN=boyson
        Validity
            Not Before: Feb 27 07:03:49 2023 GMT
            Not After : Jun  1 07:03:49 2025 GMT
        Subject: CN=pongsatorn_sawangklao
        Subject Public Key Info:
            Public Key Algorithm: rsaEncryption
                RSA Public-Key: (2048 bit)
                Modulus:
                    00:eb:86:97:01:a8:06:67:62:1b:db:79:89:12:e9:
                    b5:e4:bf:7f:56:d2:e1:f0:c7:98:a1:4e:1b:0c:8a:
                    d9:95:b4:d9:80:aa:b2:12:dd:69:61:1b:2e:b4:34:
                    d0:ab:84:d8:3f:03:28:63:b5:22:8c:74:3e:55:83:
                    bf:d6:6a:4d:00:25:19:32:7c:bd:41:97:6b:bc:17:
                    ac:51:c2:0b:a4:06:86:97:df:19:d8:44:c9:21:eb:
                    88:87:fd:96:df:13:a7:17:72:08:3b:21:02:68:0a:
                    33:28:4a:9f:e2:f3:fe:07:7b:dc:ef:0d:66:3c:68:
                    37:40:38:2f:43:4b:2a:34:1a:4f:ad:34:ee:bd:bd:
                    7b:cb:42:7f:2a:ba:ef:5b:12:88:14:45:eb:ed:27:
                    eb:de:40:1c:36:a4:88:1b:8e:2f:2b:e4:45:43:b1:
                    cd:31:47:fc:46:2b:86:5a:9f:b5:49:68:9f:55:43:
                    f0:3b:b1:88:69:a9:16:e0:c3:93:ab:f7:13:51:7c:
                    71:a9:01:73:55:52:a9:a0:f3:fb:9b:f1:ca:e2:7a:
                    0f:bd:52:23:5b:c8:1c:48:c2:3c:19:db:27:6f:d9:
                    a6:d4:b7:c9:ea:6f:b5:25:78:de:2f:b8:0b:0d:94:
                    d9:95:d0:0a:b6:67:3a:19:3a:b9:55:85:c4:90:f6:
                    cc:95
                Exponent: 65537 (0x10001)
        X509v3 extensions:
            X509v3 Basic Constraints: 
                CA:FALSE
            X509v3 Subject Key Identifier: 
                FB:C9:F1:99:C1:36:FC:70:BD:66:E9:EA:45:78:28:4B:5E:18:71:7B
            X509v3 Authority Key Identifier: 
                keyid:FF:1F:1F:0E:F4:6E:BB:36:63:FF:5E:9A:F1:3B:D6:4F:78:0D:A1:80
                DirName:/CN=boyson
                serial:07:CD:EA:4E:7F:98:34:2C:F6:34:76:E0:5C:91:D7:70:FC:23:97:B7

            X509v3 Extended Key Usage: 
                TLS Web Client Authentication
            X509v3 Key Usage: 
                Digital Signature
    Signature Algorithm: sha256WithRSAEncryption
         72:c6:41:dc:ad:27:a7:df:a5:28:4e:29:46:5b:17:8c:85:97:
         16:2a:3c:d2:4f:e6:77:15:60:85:05:21:e8:7f:28:ae:44:69:
         03:d5:cf:dd:3f:52:d3:c8:31:89:a4:7f:95:a7:fb:65:d5:5c:
         35:73:8a:b1:e2:e9:13:73:7c:f5:ac:ad:b0:4a:80:b4:c1:78:
         76:71:e0:b0:97:d4:03:e3:49:64:9e:51:8a:00:25:94:d5:30:
         65:e1:e7:49:3d:1a:9c:c5:8d:3c:17:e2:7a:6e:1d:ab:26:e0:
         b7:25:a1:cd:8c:6b:1a:0c:79:f9:69:10:0f:0b:7d:28:c1:5f:
         3e:ab:28:a3:fd:13:46:18:d6:e0:48:bb:a5:15:bc:8c:41:0f:
         34:44:c9:c5:29:37:7f:37:e4:b4:68:af:52:71:23:f6:4f:2a:
         34:ea:d7:dc:94:ec:5b:53:61:07:01:cc:03:57:23:6f:6f:8b:
         0b:b8:75:e5:a9:39:3b:30:d1:96:40:f4:82:39:8b:69:90:3b:
         17:95:5a:45:a2:de:6d:9e:9a:6b:78:6a:90:aa:74:7f:42:13:
         35:23:d6:77:62:ec:64:ed:df:85:be:5d:65:c3:b9:68:20:20:
         a5:de:9c:01:59:f4:32:08:4e:24:f4:41:f6:42:2e:9d:c4:51:
         fd:a3:fc:e9
-----BEGIN CERTIFICATE-----
MIIDWTCCAkGgAwIBAgIQRliu0GgVM7ym4Yo7yp7soDANBgkqhkiG9w0BAQsFADAR
MQ8wDQYDVQQDDAZib3lzb24wHhcNMjMwMjI3MDcwMzQ5WhcNMjUwNjAxMDcwMzQ5
WjAgMR4wHAYDVQQDDBVwb25nc2F0b3JuX3Nhd2FuZ2tsYW8wggEiMA0GCSqGSIb3
DQEBAQUAA4IBDwAwggEKAoIBAQDrhpcBqAZnYhvbeYkS6bXkv39W0uHwx5ihThsM
itmVtNmAqrIS3WlhGy60NNCrhNg/AyhjtSKMdD5Vg7/Wak0AJRkyfL1Bl2u8F6xR
wgukBoaX3xnYRMkh64iH/ZbfE6cXcgg7IQJoCjMoSp/i8/4He9zvDWY8aDdAOC9D
Syo0Gk+tNO69vXvLQn8quu9bEogURevtJ+veQBw2pIgbji8r5EVDsc0xR/xGK4Za
n7VJaJ9VQ/A7sYhpqRbgw5Or9xNRfHGpAXNVUqmg8/ub8crieg+9UiNbyBxIwjwZ
2ydv2abUt8nqb7UleN4vuAsNlNmV0Aq2ZzoZOrlVhcSQ9syVAgMBAAGjgZ0wgZow
CQYDVR0TBAIwADAdBgNVHQ4EFgQU+8nxmcE2/HC9ZunqRXgoS14YcXswTAYDVR0j
BEUwQ4AU/x8fDvRuuzZj/16a8TvWT3gNoYChFaQTMBExDzANBgNVBAMMBmJveXNv
boIUB83qTn+YNCz2NHbgXJHXcPwjl7cwEwYDVR0lBAwwCgYIKwYBBQUHAwIwCwYD
VR0PBAQDAgeAMA0GCSqGSIb3DQEBCwUAA4IBAQByxkHcrSen36UoTilGWxeMhZcW
KjzST+Z3FWCFBSHofyiuRGkD1c/dP1LTyDGJpH+Vp/tl1Vw1c4qx4ukTc3z1rK2w
SoC0wXh2ceCwl9QD40lknlGKACWU1TBl4edJPRqcxY08F+J6bh2rJuC3JaHNjGsa
DHn5aRAPC30owV8+qyij/RNGGNbgSLulFbyMQQ80RMnFKTd/N+S0aK9ScSP2Tyo0
6tfclOxbU2EHAcwDVyNvb4sLuHXlqTk7MNGWQPSCOYtpkDsXlVpFot5tnppreGqQ
qnR/QhM1I9Z3Yuxk7d+Fvl1lw7loICCl3pwBWfQyCE4k9EH2Qi6dxFH9o/zp
-----END CERTIFICATE-----
