Certificate:
    Data:
        Version: 3 (0x2)
        Serial Number:
            4b:3f:b9:e5:d2:0f:c1:fb:80:13:4c:46:66:14:a2:ef
        Signature Algorithm: sha256WithRSAEncryption
        Issuer: CN=boyson
        Validity
            Not Before: Feb 24 07:16:29 2023 GMT
            Not After : May 29 07:16:29 2025 GMT
        Subject: CN=pongsatorn_sawangklao
        Subject Public Key Info:
            Public Key Algorithm: rsaEncryption
                RSA Public-Key: (2048 bit)
                Modulus:
                    00:d1:f0:6f:ac:2b:d8:41:99:11:5d:ba:bc:72:45:
                    4b:dd:ed:6f:a4:33:91:11:c5:e0:c5:81:e9:7c:58:
                    bd:b2:0a:57:4a:65:cf:6f:d5:16:f6:42:1d:d2:44:
                    7a:a7:00:69:19:53:7b:73:68:e1:8e:c1:17:ba:72:
                    1c:b9:d7:a3:41:35:2d:7b:f4:b2:bb:0e:8c:af:fc:
                    d7:ba:37:29:63:08:05:69:df:8c:21:b7:56:b6:53:
                    01:fb:22:de:c9:89:a4:d3:bd:db:76:71:41:79:0c:
                    3f:30:32:5f:01:5d:2f:98:ef:22:e5:f0:d7:15:1c:
                    e3:f6:ba:a5:1d:8a:eb:e8:22:59:3f:fe:a1:7b:6b:
                    a8:94:ac:cd:d3:07:99:51:7e:dc:c1:0c:45:0f:c9:
                    04:03:d9:9f:b1:59:d8:ba:1c:b1:b2:5a:24:2c:40:
                    1f:73:f2:4c:25:90:65:37:fe:53:54:f5:d5:9f:12:
                    52:ac:82:fd:36:b4:99:4e:07:5b:b9:e5:ad:06:90:
                    3d:7a:0d:20:9f:c8:ac:9b:62:aa:11:b1:8f:6b:bd:
                    81:47:6f:e0:3a:d4:7f:b6:f2:04:17:0e:cd:19:03:
                    68:d1:12:ff:c6:6a:51:b5:1b:c6:1e:6e:91:04:5f:
                    df:3d:25:87:68:be:34:7c:c1:e7:10:0f:91:1a:d7:
                    9f:cb
                Exponent: 65537 (0x10001)
        X509v3 extensions:
            X509v3 Basic Constraints: 
                CA:FALSE
            X509v3 Subject Key Identifier: 
                4F:23:1C:B2:6B:06:93:0A:BF:8F:94:D1:8B:F0:55:D6:BA:5F:99:B5
            X509v3 Authority Key Identifier: 
                keyid:FF:1F:1F:0E:F4:6E:BB:36:63:FF:5E:9A:F1:3B:D6:4F:78:0D:A1:80
                DirName:/CN=boyson
                serial:07:CD:EA:4E:7F:98:34:2C:F6:34:76:E0:5C:91:D7:70:FC:23:97:B7

            X509v3 Extended Key Usage: 
                TLS Web Client Authentication
            X509v3 Key Usage: 
                Digital Signature
    Signature Algorithm: sha256WithRSAEncryption
         59:ae:ff:2b:71:ee:9e:c7:bc:76:1a:91:a3:93:b8:c9:f1:a2:
         49:23:ea:ed:aa:07:42:8b:b2:e1:49:94:79:ae:94:fe:32:ca:
         ef:3a:eb:81:f8:e8:bc:f8:4d:56:7f:0b:03:53:ee:43:44:f0:
         b3:65:13:69:f4:28:2f:8e:2e:a3:e2:c2:2b:cd:35:6f:e7:7e:
         2a:4c:11:0f:2f:41:1d:91:a2:11:3a:df:9f:57:6a:91:c9:ba:
         3a:d3:c2:20:48:94:c2:36:3f:11:cf:8e:93:d7:e6:34:99:56:
         04:42:84:a6:1f:d8:4b:98:4f:e2:0d:fe:71:31:f7:44:9c:a9:
         56:29:b5:48:1c:b1:e8:7e:70:85:ed:81:6f:ae:f6:4b:52:be:
         4f:ea:3f:1b:0c:82:8f:65:dd:51:c6:95:de:af:b6:22:73:87:
         0d:b3:97:27:02:88:00:e9:4b:a0:cd:f6:f7:60:43:79:44:af:
         95:7d:50:09:0d:03:e3:85:c5:93:c6:1e:20:0d:e5:a6:4b:19:
         45:a7:8a:e7:9d:d7:65:31:5e:7c:b9:ec:46:1e:42:be:d7:ba:
         3e:f4:7b:60:b8:90:08:9d:7d:a5:22:3d:2b:f7:11:10:5e:e3:
         88:92:2d:d4:6d:ad:c6:6f:dd:e8:71:a2:7e:00:f0:73:31:6f:
         42:fe:40:bb
-----BEGIN CERTIFICATE-----
MIIDWTCCAkGgAwIBAgIQSz+55dIPwfuAE0xGZhSi7zANBgkqhkiG9w0BAQsFADAR
MQ8wDQYDVQQDDAZib3lzb24wHhcNMjMwMjI0MDcxNjI5WhcNMjUwNTI5MDcxNjI5
WjAgMR4wHAYDVQQDDBVwb25nc2F0b3JuX3Nhd2FuZ2tsYW8wggEiMA0GCSqGSIb3
DQEBAQUAA4IBDwAwggEKAoIBAQDR8G+sK9hBmRFdurxyRUvd7W+kM5ERxeDFgel8
WL2yCldKZc9v1Rb2Qh3SRHqnAGkZU3tzaOGOwRe6chy516NBNS179LK7Doyv/Ne6
NyljCAVp34wht1a2UwH7It7JiaTTvdt2cUF5DD8wMl8BXS+Y7yLl8NcVHOP2uqUd
iuvoIlk//qF7a6iUrM3TB5lRftzBDEUPyQQD2Z+xWdi6HLGyWiQsQB9z8kwlkGU3
/lNU9dWfElKsgv02tJlOB1u55a0GkD16DSCfyKybYqoRsY9rvYFHb+A61H+28gQX
Ds0ZA2jREv/GalG1G8YebpEEX989JYdovjR8wecQD5Ea15/LAgMBAAGjgZ0wgZow
CQYDVR0TBAIwADAdBgNVHQ4EFgQUTyMcsmsGkwq/j5TRi/BV1rpfmbUwTAYDVR0j
BEUwQ4AU/x8fDvRuuzZj/16a8TvWT3gNoYChFaQTMBExDzANBgNVBAMMBmJveXNv
boIUB83qTn+YNCz2NHbgXJHXcPwjl7cwEwYDVR0lBAwwCgYIKwYBBQUHAwIwCwYD
VR0PBAQDAgeAMA0GCSqGSIb3DQEBCwUAA4IBAQBZrv8rce6ex7x2GpGjk7jJ8aJJ
I+rtqgdCi7LhSZR5rpT+MsrvOuuB+Oi8+E1WfwsDU+5DRPCzZRNp9Cgvji6j4sIr
zTVv534qTBEPL0EdkaIROt+fV2qRybo608IgSJTCNj8Rz46T1+Y0mVYEQoSmH9hL
mE/iDf5xMfdEnKlWKbVIHLHofnCF7YFvrvZLUr5P6j8bDIKPZd1RxpXer7Yic4cN
s5cnAogA6Uugzfb3YEN5RK+VfVAJDQPjhcWTxh4gDeWmSxlFp4rnnddlMV58uexG
HkK+17o+9HtguJAInX2lIj0r9xEQXuOIki3Uba3Gb93ocaJ+APBzMW9C/kC7
-----END CERTIFICATE-----
