Certificate:
    Data:
        Version: 3 (0x2)
        Serial Number:
            4b:55:c1:99:4d:54:ca:30:72:83:5e:ff:30:6a:b6:0e
        Signature Algorithm: sha256WithRSAEncryption
        Issuer: CN=boyson
        Validity
            Not Before: Feb 27 04:25:27 2023 GMT
            Not After : Jun  1 04:25:27 2025 GMT
        Subject: CN=Pongsatorn_SAWANGKLAO
        Subject Public Key Info:
            Public Key Algorithm: rsaEncryption
                RSA Public-Key: (2048 bit)
                Modulus:
                    00:cc:3c:ad:3c:1a:be:4e:67:ee:d2:b4:24:2b:bd:
                    12:ab:f0:51:d7:2e:ff:df:ac:2e:98:f7:47:dc:1d:
                    43:c7:e9:ff:6b:14:09:fe:c1:36:5d:bc:8c:49:3e:
                    3d:44:bf:dd:72:80:5a:dd:5b:72:fa:e0:dc:6b:5a:
                    48:e2:4c:ad:c7:dd:f8:04:b4:9a:08:d7:b2:24:43:
                    8b:a8:5a:1b:10:98:be:0b:ea:22:6a:8d:31:81:e3:
                    09:1d:f1:3c:e3:26:19:be:e8:4c:4b:6f:43:17:08:
                    13:e4:e9:15:c5:47:9d:fa:b3:8f:7f:57:00:3d:94:
                    3d:ae:11:e4:9f:83:f0:8f:ca:d1:66:d8:82:35:f3:
                    1c:06:67:a6:65:a3:65:e1:1d:1f:c7:ab:ff:34:06:
                    ec:42:79:47:73:b2:03:63:f9:41:24:d4:60:a4:1c:
                    7c:bb:a2:00:ea:85:69:58:81:a8:49:f4:a1:ee:ad:
                    0f:02:b4:88:8e:26:d4:80:6f:8b:e8:03:85:3f:bb:
                    ae:a5:46:ca:b4:a6:c5:c4:12:72:f2:0d:5c:21:a7:
                    07:c7:eb:2b:08:40:8b:b6:b4:d6:1c:c5:8e:81:b5:
                    b1:b9:61:5d:fe:9e:12:0a:bf:ed:25:97:48:b2:bc:
                    39:61:65:c2:a9:cc:fe:63:f6:c7:5b:c0:d7:53:74:
                    9f:15
                Exponent: 65537 (0x10001)
        X509v3 extensions:
            X509v3 Basic Constraints: 
                CA:FALSE
            X509v3 Subject Key Identifier: 
                24:63:E8:40:33:99:B6:CE:1E:31:CF:E5:00:7D:12:0E:DD:8A:78:A6
            X509v3 Authority Key Identifier: 
                keyid:FF:1F:1F:0E:F4:6E:BB:36:63:FF:5E:9A:F1:3B:D6:4F:78:0D:A1:80
                DirName:/CN=boyson
                serial:07:CD:EA:4E:7F:98:34:2C:F6:34:76:E0:5C:91:D7:70:FC:23:97:B7

            X509v3 Extended Key Usage: 
                TLS Web Client Authentication
            X509v3 Key Usage: 
                Digital Signature
    Signature Algorithm: sha256WithRSAEncryption
         73:68:7e:ed:f8:1f:eb:84:cb:1d:cf:87:6a:af:64:0b:6a:92:
         a3:b4:42:94:38:68:2c:8b:08:6d:d0:4a:a8:44:e7:0d:bb:3d:
         01:22:0f:1c:46:02:2f:38:09:48:9f:08:b7:0b:5f:65:a6:3d:
         cf:ce:99:31:cd:4f:08:34:ff:2f:76:00:b2:86:e7:aa:da:44:
         41:0b:c0:8f:57:fc:ad:27:3d:d9:e4:40:08:3d:48:ab:41:2b:
         c0:93:6e:a8:43:29:2c:77:11:80:e0:67:3d:6f:43:ff:f8:8c:
         d2:e1:31:23:9b:1e:8e:f4:22:67:dd:11:92:6b:f9:16:62:e7:
         b4:3d:c7:02:33:e6:0a:c2:8b:25:30:4e:76:8a:6b:c8:b4:74:
         f5:1e:24:f2:f5:15:40:f9:3e:cc:8c:34:fd:51:3e:f0:ca:a3:
         3e:71:8d:14:1c:c2:3f:b4:98:1b:9f:e2:6a:e3:91:c6:70:10:
         c8:d5:fe:3b:21:db:81:42:5d:15:c6:40:3d:f7:d0:93:7f:75:
         1e:6a:ef:dd:da:fa:32:87:5d:83:1e:0f:93:91:b9:21:26:2d:
         19:ae:be:36:5d:19:0c:2c:6b:63:54:2f:a0:3b:b9:97:7c:ec:
         eb:d1:43:6c:ea:d5:d9:47:0d:6b:3b:ed:5c:5d:ee:fe:6d:22:
         61:4e:c1:3b
-----BEGIN CERTIFICATE-----
MIIDWTCCAkGgAwIBAgIQS1XBmU1UyjByg17/MGq2DjANBgkqhkiG9w0BAQsFADAR
MQ8wDQYDVQQDDAZib3lzb24wHhcNMjMwMjI3MDQyNTI3WhcNMjUwNjAxMDQyNTI3
WjAgMR4wHAYDVQQDDBVQb25nc2F0b3JuX1NBV0FOR0tMQU8wggEiMA0GCSqGSIb3
DQEBAQUAA4IBDwAwggEKAoIBAQDMPK08Gr5OZ+7StCQrvRKr8FHXLv/frC6Y90fc
HUPH6f9rFAn+wTZdvIxJPj1Ev91ygFrdW3L64NxrWkjiTK3H3fgEtJoI17IkQ4uo
WhsQmL4L6iJqjTGB4wkd8TzjJhm+6ExLb0MXCBPk6RXFR536s49/VwA9lD2uEeSf
g/CPytFm2II18xwGZ6Zlo2XhHR/Hq/80BuxCeUdzsgNj+UEk1GCkHHy7ogDqhWlY
gahJ9KHurQ8CtIiOJtSAb4voA4U/u66lRsq0psXEEnLyDVwhpwfH6ysIQIu2tNYc
xY6BtbG5YV3+nhIKv+0ll0iyvDlhZcKpzP5j9sdbwNdTdJ8VAgMBAAGjgZ0wgZow
CQYDVR0TBAIwADAdBgNVHQ4EFgQUJGPoQDOZts4eMc/lAH0SDt2KeKYwTAYDVR0j
BEUwQ4AU/x8fDvRuuzZj/16a8TvWT3gNoYChFaQTMBExDzANBgNVBAMMBmJveXNv
boIUB83qTn+YNCz2NHbgXJHXcPwjl7cwEwYDVR0lBAwwCgYIKwYBBQUHAwIwCwYD
VR0PBAQDAgeAMA0GCSqGSIb3DQEBCwUAA4IBAQBzaH7t+B/rhMsdz4dqr2QLapKj
tEKUOGgsiwht0EqoROcNuz0BIg8cRgIvOAlInwi3C19lpj3PzpkxzU8INP8vdgCy
hueq2kRBC8CPV/ytJz3Z5EAIPUirQSvAk26oQyksdxGA4Gc9b0P/+IzS4TEjmx6O
9CJn3RGSa/kWYue0PccCM+YKwoslME52imvItHT1HiTy9RVA+T7MjDT9UT7wyqM+
cY0UHMI/tJgbn+Jq45HGcBDI1f47IduBQl0VxkA999CTf3Ueau/d2voyh12DHg+T
kbkhJi0Zrr42XRkMLGtjVC+gO7mXfOzr0UNs6tXZRw1rO+1cXe7+bSJhTsE7
-----END CERTIFICATE-----
