Certificate:
    Data:
        Version: 3 (0x2)
        Serial Number:
            51:9e:ad:69:9b:71:c8:d4:3a:ff:04:d7:d7:ff:e1:55
        Signature Algorithm: sha256WithRSAEncryption
        Issuer: CN=boyson
        Validity
            Not Before: Feb 23 08:22:37 2023 GMT
            Not After : May 28 08:22:37 2025 GMT
        Subject: CN=Pongsatorn_SAWANGKLAO
        Subject Public Key Info:
            Public Key Algorithm: rsaEncryption
                RSA Public-Key: (2048 bit)
                Modulus:
                    00:ad:c3:7c:f7:89:75:fc:8a:ef:50:cc:31:c5:18:
                    da:c6:5e:da:8a:d4:49:55:a9:6b:ba:d0:dc:0b:57:
                    47:c3:02:b5:68:07:5a:79:9e:97:51:b5:6f:9a:b7:
                    c6:57:0e:9b:30:c1:29:69:7a:f4:fc:7c:1e:76:1f:
                    90:7f:1c:c1:4a:30:74:a9:95:7a:1d:40:14:f9:d8:
                    c8:02:75:a3:e5:99:b8:00:47:3f:c0:8d:6d:bf:50:
                    45:26:f0:5d:e3:6e:9f:12:b1:7f:bc:d7:c1:45:06:
                    36:7e:88:4b:3e:ed:47:3e:17:7c:57:2a:87:31:44:
                    74:8b:3f:57:79:dc:9b:b0:64:9e:b3:78:c0:9b:c8:
                    d8:06:bc:b3:d4:a2:f4:87:c5:d8:87:72:eb:79:79:
                    00:74:9b:7b:f4:32:fd:1a:b8:92:f5:8b:74:55:a0:
                    67:1c:ea:8c:98:d8:bf:e5:bc:85:ae:e1:82:21:1a:
                    55:45:e6:73:2b:3b:52:47:db:6a:8b:0e:64:48:a4:
                    cf:b3:76:31:dd:7b:c5:93:55:fa:8b:eb:b3:02:67:
                    b5:0a:d0:08:35:f0:e5:69:b3:cb:08:65:bc:19:52:
                    75:bf:ca:b1:fd:4c:10:46:37:fe:f4:a7:bb:3d:b1:
                    66:78:0e:22:b7:d4:cf:da:4b:85:f4:79:4e:be:5a:
                    6c:87
                Exponent: 65537 (0x10001)
        X509v3 extensions:
            X509v3 Basic Constraints: 
                CA:FALSE
            X509v3 Subject Key Identifier: 
                6E:CB:92:10:23:F9:2B:8D:7D:18:9D:AA:00:6E:10:92:0D:93:5F:2A
            X509v3 Authority Key Identifier: 
                keyid:FF:1F:1F:0E:F4:6E:BB:36:63:FF:5E:9A:F1:3B:D6:4F:78:0D:A1:80
                DirName:/CN=boyson
                serial:07:CD:EA:4E:7F:98:34:2C:F6:34:76:E0:5C:91:D7:70:FC:23:97:B7

            X509v3 Extended Key Usage: 
                TLS Web Client Authentication
            X509v3 Key Usage: 
                Digital Signature
    Signature Algorithm: sha256WithRSAEncryption
         48:65:00:da:6b:8f:40:25:dd:d2:fb:3f:e9:f6:0a:aa:0f:25:
         f2:fc:74:9f:17:ec:6b:ab:4d:1a:0a:8c:a3:76:8f:04:1e:a7:
         d5:af:55:ed:d2:6a:52:d0:e0:3b:0c:54:0e:83:5b:26:88:6f:
         0d:f7:d1:b9:18:3f:a7:56:35:a0:f4:d4:ad:14:d0:db:8c:41:
         b0:c8:d2:87:71:61:7e:96:a0:3d:98:36:35:18:57:2b:6c:0f:
         47:8e:8f:f9:44:7e:7e:d5:7e:04:83:d8:26:d9:82:31:68:ba:
         3a:7b:2b:b9:4e:b1:6a:be:56:b5:6e:70:96:3e:df:4f:cd:35:
         4e:06:50:1b:69:fe:fa:4d:3c:39:4b:67:cd:95:e4:89:82:96:
         7e:b1:3e:3a:04:68:c3:09:6d:a8:28:97:58:cf:8e:e1:6e:dc:
         3c:d6:86:41:cd:cb:71:d1:f0:b4:88:b8:16:07:0c:a8:06:d4:
         3a:1e:90:1d:79:8f:04:e8:f2:26:ed:e7:52:a4:3d:3a:15:32:
         b1:37:2f:d4:4e:48:2d:ee:cc:99:02:b9:76:88:1a:ff:2c:f5:
         35:cf:2d:1d:df:43:73:dd:f4:4f:b1:de:bc:05:89:a6:a7:89:
         26:09:41:c4:d7:89:2a:12:bc:42:26:ac:b9:85:19:8f:26:5a:
         a8:8f:82:a8
-----BEGIN CERTIFICATE-----
MIIDWTCCAkGgAwIBAgIQUZ6taZtxyNQ6/wTX1//hVTANBgkqhkiG9w0BAQsFADAR
MQ8wDQYDVQQDDAZib3lzb24wHhcNMjMwMjIzMDgyMjM3WhcNMjUwNTI4MDgyMjM3
WjAgMR4wHAYDVQQDDBVQb25nc2F0b3JuX1NBV0FOR0tMQU8wggEiMA0GCSqGSIb3
DQEBAQUAA4IBDwAwggEKAoIBAQCtw3z3iXX8iu9QzDHFGNrGXtqK1ElVqWu60NwL
V0fDArVoB1p5npdRtW+at8ZXDpswwSlpevT8fB52H5B/HMFKMHSplXodQBT52MgC
daPlmbgARz/AjW2/UEUm8F3jbp8SsX+818FFBjZ+iEs+7Uc+F3xXKocxRHSLP1d5
3JuwZJ6zeMCbyNgGvLPUovSHxdiHcut5eQB0m3v0Mv0auJL1i3RVoGcc6oyY2L/l
vIWu4YIhGlVF5nMrO1JH22qLDmRIpM+zdjHde8WTVfqL67MCZ7UK0Ag18OVps8sI
ZbwZUnW/yrH9TBBGN/70p7s9sWZ4DiK31M/aS4X0eU6+WmyHAgMBAAGjgZ0wgZow
CQYDVR0TBAIwADAdBgNVHQ4EFgQUbsuSECP5K419GJ2qAG4Qkg2TXyowTAYDVR0j
BEUwQ4AU/x8fDvRuuzZj/16a8TvWT3gNoYChFaQTMBExDzANBgNVBAMMBmJveXNv
boIUB83qTn+YNCz2NHbgXJHXcPwjl7cwEwYDVR0lBAwwCgYIKwYBBQUHAwIwCwYD
VR0PBAQDAgeAMA0GCSqGSIb3DQEBCwUAA4IBAQBIZQDaa49AJd3S+z/p9gqqDyXy
/HSfF+xrq00aCoyjdo8EHqfVr1Xt0mpS0OA7DFQOg1smiG8N99G5GD+nVjWg9NSt
FNDbjEGwyNKHcWF+lqA9mDY1GFcrbA9Hjo/5RH5+1X4Eg9gm2YIxaLo6eyu5TrFq
vla1bnCWPt9PzTVOBlAbaf76TTw5S2fNleSJgpZ+sT46BGjDCW2oKJdYz47hbtw8
1oZBzctx0fC0iLgWBwyoBtQ6HpAdeY8E6PIm7edSpD06FTKxNy/UTkgt7syZArl2
iBr/LPU1zy0d30Nz3fRPsd68BYmmp4kmCUHE14kqErxCJqy5hRmPJlqoj4Ko
-----END CERTIFICATE-----
