Certificate:
    Data:
        Version: 3 (0x2)
        Serial Number:
            55:9f:68:18:79:14:7e:f6:da:39:89:3d:10:23:c7:15
        Signature Algorithm: sha256WithRSAEncryption
        Issuer: CN=boyson
        Validity
            Not Before: Feb 27 06:34:25 2023 GMT
            Not After : Jun  1 06:34:25 2025 GMT
        Subject: CN=Pongsatorn_SAWANGKLAO
        Subject Public Key Info:
            Public Key Algorithm: rsaEncryption
                RSA Public-Key: (2048 bit)
                Modulus:
                    00:ab:d6:0e:9d:bc:91:ca:5a:cc:b3:c6:d7:3f:94:
                    da:46:6b:b9:9e:eb:ba:26:49:db:ba:26:20:d8:a4:
                    01:31:b3:6e:93:18:dd:97:6e:7c:b5:ef:9d:c4:21:
                    c2:53:f5:b0:92:09:02:3d:2f:dc:9c:58:54:42:6e:
                    14:54:16:b2:84:bf:eb:70:f2:9b:c5:83:12:04:0f:
                    2b:24:49:07:67:9c:cc:ec:85:49:79:df:6a:62:10:
                    3f:03:0d:87:88:0f:47:04:51:1e:18:53:b2:05:18:
                    ac:cb:37:4a:f7:05:75:f6:f5:c7:9c:02:f2:b3:9b:
                    e5:43:8a:42:d0:13:28:13:62:2b:e2:29:99:19:81:
                    e1:9f:4d:54:b8:19:ad:4f:cc:17:83:f0:1c:8f:d2:
                    2e:58:53:76:3d:0e:08:f0:f0:ab:21:e6:95:db:db:
                    6c:ee:cd:79:4b:9c:ef:6f:a1:a6:ef:dc:c2:71:05:
                    d6:a2:c3:e4:9c:5e:6f:03:65:a0:53:a9:d8:1c:92:
                    a7:e7:6c:f1:00:96:22:15:a9:c5:fb:e7:2e:6a:ae:
                    91:89:9d:e2:c6:75:95:69:9f:3b:ba:44:65:53:25:
                    02:2c:d1:ca:ff:96:d9:2c:05:22:51:7a:71:cc:37:
                    be:61:c9:57:c6:c0:8f:28:6c:d0:eb:ea:c7:89:42:
                    9f:6d
                Exponent: 65537 (0x10001)
        X509v3 extensions:
            X509v3 Basic Constraints: 
                CA:FALSE
            X509v3 Subject Key Identifier: 
                79:C8:8E:F0:31:CA:B7:D4:F4:C6:32:06:04:8E:A2:EB:E7:B0:E4:B5
            X509v3 Authority Key Identifier: 
                keyid:FF:1F:1F:0E:F4:6E:BB:36:63:FF:5E:9A:F1:3B:D6:4F:78:0D:A1:80
                DirName:/CN=boyson
                serial:07:CD:EA:4E:7F:98:34:2C:F6:34:76:E0:5C:91:D7:70:FC:23:97:B7

            X509v3 Extended Key Usage: 
                TLS Web Client Authentication
            X509v3 Key Usage: 
                Digital Signature
    Signature Algorithm: sha256WithRSAEncryption
         11:fa:6d:b3:17:bb:67:e1:bc:f0:4b:1c:97:ba:43:1d:fc:5f:
         fa:8b:9e:1d:a6:d1:77:27:92:be:77:44:34:b4:96:e7:e9:03:
         c3:ae:d5:4a:9c:ed:d8:6a:be:10:56:41:a1:46:be:9f:84:de:
         b8:27:03:bc:a2:59:67:78:09:2c:5f:73:b7:3a:d1:db:57:14:
         90:ee:6a:3c:f1:ac:87:53:35:61:0a:01:3f:61:8e:1d:d9:31:
         1a:ed:14:98:f4:a9:db:4e:19:f8:a2:20:6d:a3:9b:49:bc:8b:
         f3:c6:70:50:79:2b:66:36:42:76:f1:08:6f:95:87:71:f0:6d:
         67:6f:fc:aa:bf:1d:24:9d:2a:19:7f:4f:25:5a:6b:46:4e:2a:
         99:e2:64:42:1b:f0:5f:0a:77:f6:5b:94:7f:b1:fd:e9:da:0e:
         e1:24:37:f1:6f:ba:a8:6e:ac:80:33:ea:eb:51:fb:1b:4d:d8:
         55:13:01:2c:43:7a:cb:d3:62:2c:87:23:83:f3:b7:2e:b8:10:
         85:10:c5:47:ed:64:28:36:40:c2:a3:69:4f:e2:88:01:15:9f:
         30:22:3c:be:9a:eb:1a:7b:99:11:54:08:96:31:8d:6b:22:d8:
         8a:61:72:f3:a5:44:34:9d:6f:8c:77:b9:13:7c:34:83:6a:b7:
         11:c3:17:7f
-----BEGIN CERTIFICATE-----
MIIDWTCCAkGgAwIBAgIQVZ9oGHkUfvbaOYk9ECPHFTANBgkqhkiG9w0BAQsFADAR
MQ8wDQYDVQQDDAZib3lzb24wHhcNMjMwMjI3MDYzNDI1WhcNMjUwNjAxMDYzNDI1
WjAgMR4wHAYDVQQDDBVQb25nc2F0b3JuX1NBV0FOR0tMQU8wggEiMA0GCSqGSIb3
DQEBAQUAA4IBDwAwggEKAoIBAQCr1g6dvJHKWsyzxtc/lNpGa7me67omSdu6JiDY
pAExs26TGN2Xbny1753EIcJT9bCSCQI9L9ycWFRCbhRUFrKEv+tw8pvFgxIEDysk
SQdnnMzshUl532piED8DDYeID0cEUR4YU7IFGKzLN0r3BXX29cecAvKzm+VDikLQ
EygTYiviKZkZgeGfTVS4Ga1PzBeD8ByP0i5YU3Y9Dgjw8Ksh5pXb22zuzXlLnO9v
oabv3MJxBdaiw+ScXm8DZaBTqdgckqfnbPEAliIVqcX75y5qrpGJneLGdZVpnzu6
RGVTJQIs0cr/ltksBSJRenHMN75hyVfGwI8obNDr6seJQp9tAgMBAAGjgZ0wgZow
CQYDVR0TBAIwADAdBgNVHQ4EFgQUeciO8DHKt9T0xjIGBI6i6+ew5LUwTAYDVR0j
BEUwQ4AU/x8fDvRuuzZj/16a8TvWT3gNoYChFaQTMBExDzANBgNVBAMMBmJveXNv
boIUB83qTn+YNCz2NHbgXJHXcPwjl7cwEwYDVR0lBAwwCgYIKwYBBQUHAwIwCwYD
VR0PBAQDAgeAMA0GCSqGSIb3DQEBCwUAA4IBAQAR+m2zF7tn4bzwSxyXukMd/F/6
i54dptF3J5K+d0Q0tJbn6QPDrtVKnO3Yar4QVkGhRr6fhN64JwO8ollneAksX3O3
OtHbVxSQ7mo88ayHUzVhCgE/YY4d2TEa7RSY9KnbThn4oiBto5tJvIvzxnBQeStm
NkJ28QhvlYdx8G1nb/yqvx0knSoZf08lWmtGTiqZ4mRCG/BfCnf2W5R/sf3p2g7h
JDfxb7qobqyAM+rrUfsbTdhVEwEsQ3rL02IshyOD87cuuBCFEMVH7WQoNkDCo2lP
4ogBFZ8wIjy+musae5kRVAiWMY1rItiKYXLzpUQ0nW+Md7kTfDSDarcRwxd/
-----END CERTIFICATE-----
