Certificate:
    Data:
        Version: 3 (0x2)
        Serial Number:
            59:93:aa:f2:8b:35:e9:0d:1d:14:ce:46:54:37:70:7b
        Signature Algorithm: sha256WithRSAEncryption
        Issuer: CN=boyson
        Validity
            Not Before: Feb 21 10:38:18 2023 GMT
            Not After : May 26 10:38:18 2025 GMT
        Subject: CN=pongsatorn_sawangklao
        Subject Public Key Info:
            Public Key Algorithm: rsaEncryption
                RSA Public-Key: (2048 bit)
                Modulus:
                    00:9a:d0:c5:7a:31:dc:af:8e:9b:1c:f8:c0:94:d0:
                    ff:37:01:5f:e1:32:32:b5:34:f7:87:ca:7e:ce:0b:
                    89:fb:f6:d2:06:81:74:5f:c0:bf:d0:f3:24:b8:db:
                    29:71:b3:15:3e:c5:35:5d:c9:d5:76:27:21:91:06:
                    57:bb:10:f0:b4:a2:48:25:57:ab:e3:d5:9c:71:62:
                    df:c9:0e:a1:6c:1a:b3:b7:e7:cb:9e:34:ad:e3:d4:
                    1a:f9:89:0f:b6:f1:48:28:3a:18:ea:2d:d0:8e:5a:
                    83:af:12:b4:08:6b:a9:6f:ed:af:67:39:96:50:47:
                    60:c5:68:94:a8:e1:00:3b:4f:a1:93:2d:18:49:1e:
                    4c:3a:1d:54:b2:34:07:38:61:31:5b:7e:02:e9:f8:
                    81:f3:73:54:f7:9a:85:60:7a:78:b4:3d:4b:9d:ab:
                    93:c1:1c:93:05:58:d0:02:fc:69:e1:7f:e7:0d:b3:
                    18:d2:d0:37:dc:c4:99:fa:33:df:8a:45:40:fd:13:
                    62:64:e7:90:1a:9e:56:45:c4:31:44:e6:30:d6:0e:
                    6d:91:52:e8:34:37:68:d7:bd:da:4b:0f:68:fd:8f:
                    fa:7e:d2:bb:19:91:ea:da:12:2f:df:26:8a:ec:96:
                    a2:2e:85:b9:bc:eb:e1:65:ee:77:ea:07:44:cf:41:
                    8f:d3
                Exponent: 65537 (0x10001)
        X509v3 extensions:
            X509v3 Basic Constraints: 
                CA:FALSE
            X509v3 Subject Key Identifier: 
                0D:2F:00:19:2B:3B:37:7A:6B:6E:14:76:13:AE:24:80:B4:D3:9F:61
            X509v3 Authority Key Identifier: 
                keyid:FF:1F:1F:0E:F4:6E:BB:36:63:FF:5E:9A:F1:3B:D6:4F:78:0D:A1:80
                DirName:/CN=boyson
                serial:07:CD:EA:4E:7F:98:34:2C:F6:34:76:E0:5C:91:D7:70:FC:23:97:B7

            X509v3 Extended Key Usage: 
                TLS Web Client Authentication
            X509v3 Key Usage: 
                Digital Signature
    Signature Algorithm: sha256WithRSAEncryption
         1f:ad:a7:cc:19:7b:2e:cc:b6:4a:83:a5:d3:0d:40:d3:04:e7:
         c4:ac:bc:c1:b4:a2:92:f1:ec:c2:7b:a1:e0:2d:88:17:8f:d0:
         1c:f2:18:ee:0c:19:70:8b:83:b9:0b:e4:76:ee:3e:5c:d4:63:
         e5:61:6b:31:ac:8a:22:fd:ac:4e:05:9f:30:ad:57:d4:36:fc:
         0e:35:9a:23:3c:58:e0:d1:ce:48:80:99:ef:ea:29:f8:50:32:
         4f:eb:e4:fb:df:62:f0:df:23:3e:17:b6:49:48:68:e0:bb:82:
         5c:b8:82:5e:0f:46:c1:18:6a:6a:a7:94:f7:3e:1d:e4:d9:6a:
         98:c4:b8:48:a6:f6:39:4c:dc:9f:c9:db:fa:b6:e2:4d:6a:c9:
         54:c6:ae:26:aa:fb:5b:3f:ef:eb:f7:8c:ef:cd:c9:89:ab:78:
         e7:4c:cc:81:15:46:3f:2b:20:b6:dc:11:65:12:3f:50:dc:91:
         3c:d9:cf:68:db:be:e5:2b:d9:03:d6:d0:85:4a:de:d2:c8:fc:
         92:e0:58:32:41:12:d5:b0:8e:9f:07:f6:77:ef:04:72:7d:49:
         03:b1:14:80:53:a3:30:1b:1a:2c:0c:70:37:44:30:83:23:82:
         dc:74:db:e3:08:78:c8:45:49:d1:33:66:4b:6e:c0:1e:27:d9:
         a8:c2:4c:e1
-----BEGIN CERTIFICATE-----
MIIDWTCCAkGgAwIBAgIQWZOq8os16Q0dFM5GVDdwezANBgkqhkiG9w0BAQsFADAR
MQ8wDQYDVQQDDAZib3lzb24wHhcNMjMwMjIxMTAzODE4WhcNMjUwNTI2MTAzODE4
WjAgMR4wHAYDVQQDDBVwb25nc2F0b3JuX3Nhd2FuZ2tsYW8wggEiMA0GCSqGSIb3
DQEBAQUAA4IBDwAwggEKAoIBAQCa0MV6Mdyvjpsc+MCU0P83AV/hMjK1NPeHyn7O
C4n79tIGgXRfwL/Q8yS42ylxsxU+xTVdydV2JyGRBle7EPC0okglV6vj1ZxxYt/J
DqFsGrO358ueNK3j1Br5iQ+28UgoOhjqLdCOWoOvErQIa6lv7a9nOZZQR2DFaJSo
4QA7T6GTLRhJHkw6HVSyNAc4YTFbfgLp+IHzc1T3moVgeni0PUudq5PBHJMFWNAC
/Gnhf+cNsxjS0DfcxJn6M9+KRUD9E2Jk55AanlZFxDFE5jDWDm2RUug0N2jXvdpL
D2j9j/p+0rsZkeraEi/fJorslqIuhbm86+Fl7nfqB0TPQY/TAgMBAAGjgZ0wgZow
CQYDVR0TBAIwADAdBgNVHQ4EFgQUDS8AGSs7N3prbhR2E64kgLTTn2EwTAYDVR0j
BEUwQ4AU/x8fDvRuuzZj/16a8TvWT3gNoYChFaQTMBExDzANBgNVBAMMBmJveXNv
boIUB83qTn+YNCz2NHbgXJHXcPwjl7cwEwYDVR0lBAwwCgYIKwYBBQUHAwIwCwYD
VR0PBAQDAgeAMA0GCSqGSIb3DQEBCwUAA4IBAQAfrafMGXsuzLZKg6XTDUDTBOfE
rLzBtKKS8ezCe6HgLYgXj9Ac8hjuDBlwi4O5C+R27j5c1GPlYWsxrIoi/axOBZ8w
rVfUNvwONZojPFjg0c5IgJnv6in4UDJP6+T732Lw3yM+F7ZJSGjgu4JcuIJeD0bB
GGpqp5T3Ph3k2WqYxLhIpvY5TNyfydv6tuJNaslUxq4mqvtbP+/r94zvzcmJq3jn
TMyBFUY/KyC23BFlEj9Q3JE82c9o277lK9kD1tCFSt7SyPyS4FgyQRLVsI6fB/Z3
7wRyfUkDsRSAU6MwGxosDHA3RDCDI4LcdNvjCHjIRUnRM2ZLbsAeJ9mowkzh
-----END CERTIFICATE-----
