Certificate:
    Data:
        Version: 3 (0x2)
        Serial Number:
            6c:64:36:8a:4f:e8:e5:f0:cd:c7:43:d7:f5:ab:35:5b
        Signature Algorithm: sha256WithRSAEncryption
        Issuer: CN=boyson
        Validity
            Not Before: Feb 28 04:39:30 2023 GMT
            Not After : Jun  2 04:39:30 2025 GMT
        Subject: CN=pongsatorn_sawangklao
        Subject Public Key Info:
            Public Key Algorithm: rsaEncryption
                RSA Public-Key: (2048 bit)
                Modulus:
                    00:cf:02:85:27:4f:65:bb:ef:97:9b:fb:77:32:e1:
                    c0:ff:8e:ed:9e:c5:6c:c7:b0:fb:48:48:40:22:5a:
                    86:20:ec:18:a5:fb:a4:77:b6:22:f2:31:82:2d:d3:
                    6b:27:dc:63:fb:2a:30:9c:4f:ea:0c:69:4e:3d:bb:
                    0b:97:19:23:fc:5c:5d:89:fc:62:29:81:01:f3:11:
                    9f:59:98:a1:52:61:96:df:fe:31:95:40:7f:7c:9e:
                    31:f9:de:57:c9:01:1e:2e:0f:24:d1:f1:1e:39:72:
                    05:0c:0c:c4:1b:5f:18:65:ea:bb:0a:3a:9d:6a:bb:
                    d4:e3:b7:08:81:e3:ea:36:02:85:7e:cc:0a:a3:43:
                    b0:70:4b:14:16:f0:47:57:e9:56:43:39:93:21:57:
                    68:14:72:07:c1:7b:5f:26:df:d8:e8:a0:47:ac:2e:
                    c5:6f:6b:0f:e9:1f:24:d1:32:a5:3e:eb:4e:8a:5c:
                    92:ed:c6:4c:54:17:e3:bc:e3:95:c0:9f:08:7b:02:
                    85:75:2a:98:f5:14:a4:39:d2:eb:b4:9f:7c:2b:0a:
                    87:80:f8:54:d6:41:87:ee:86:e1:1a:a3:b1:56:b4:
                    23:a0:d5:01:72:a9:78:eb:d7:5c:ea:a8:51:14:bb:
                    74:6b:d3:05:74:66:c0:7c:b3:b7:23:c7:d9:f1:fe:
                    9f:d9
                Exponent: 65537 (0x10001)
        X509v3 extensions:
            X509v3 Basic Constraints: 
                CA:FALSE
            X509v3 Subject Key Identifier: 
                D5:AC:9F:1C:A8:DB:68:26:FC:D2:22:4E:8E:4A:DF:CE:A2:35:20:E7
            X509v3 Authority Key Identifier: 
                keyid:FF:1F:1F:0E:F4:6E:BB:36:63:FF:5E:9A:F1:3B:D6:4F:78:0D:A1:80
                DirName:/CN=boyson
                serial:07:CD:EA:4E:7F:98:34:2C:F6:34:76:E0:5C:91:D7:70:FC:23:97:B7

            X509v3 Extended Key Usage: 
                TLS Web Client Authentication
            X509v3 Key Usage: 
                Digital Signature
    Signature Algorithm: sha256WithRSAEncryption
         5a:49:6d:b0:8d:4e:10:c0:76:9f:dd:e8:fa:bd:e0:60:53:48:
         30:a7:8f:33:d5:03:d3:81:3f:0c:f7:37:46:14:07:61:db:c1:
         eb:83:08:f8:4a:ac:46:ce:e5:5c:28:9e:f9:ac:7e:ba:9d:01:
         17:bf:fc:8d:61:25:e4:8b:a7:7c:0b:e2:ac:d3:6e:20:64:b5:
         75:75:7d:d3:0c:cc:9d:cc:9c:73:da:19:b2:3b:c6:cf:70:93:
         f9:ec:8a:ef:4c:02:3d:5e:88:cf:2b:5b:4e:92:6c:3d:a1:71:
         b6:a6:13:ff:b2:95:bf:e8:c9:47:7a:a1:20:be:fe:bb:4a:72:
         61:ef:80:02:38:35:1a:79:3c:1d:ad:be:9f:b2:8b:2f:9e:45:
         ca:28:93:4c:e8:ff:d3:37:72:03:0c:d7:8a:3e:cf:db:05:02:
         33:eb:5f:36:9b:81:1f:07:ca:d2:8d:96:da:22:ee:fd:79:2b:
         03:22:e6:d2:5b:1c:6d:c5:c7:d7:3c:49:f5:dc:e8:1a:2b:fd:
         a4:80:04:f1:33:fb:5e:a4:2d:ab:a1:60:43:5e:0b:c7:af:95:
         c0:3f:1f:1b:02:6b:26:6d:58:fa:bd:68:aa:4b:55:93:2a:af:
         eb:06:28:27:6a:a2:b7:49:20:eb:05:51:e0:2c:b2:36:7a:09:
         9c:48:61:f8
-----BEGIN CERTIFICATE-----
MIIDWTCCAkGgAwIBAgIQbGQ2ik/o5fDNx0PX9as1WzANBgkqhkiG9w0BAQsFADAR
MQ8wDQYDVQQDDAZib3lzb24wHhcNMjMwMjI4MDQzOTMwWhcNMjUwNjAyMDQzOTMw
WjAgMR4wHAYDVQQDDBVwb25nc2F0b3JuX3Nhd2FuZ2tsYW8wggEiMA0GCSqGSIb3
DQEBAQUAA4IBDwAwggEKAoIBAQDPAoUnT2W775eb+3cy4cD/ju2exWzHsPtISEAi
WoYg7Bil+6R3tiLyMYIt02sn3GP7KjCcT+oMaU49uwuXGSP8XF2J/GIpgQHzEZ9Z
mKFSYZbf/jGVQH98njH53lfJAR4uDyTR8R45cgUMDMQbXxhl6rsKOp1qu9TjtwiB
4+o2AoV+zAqjQ7BwSxQW8EdX6VZDOZMhV2gUcgfBe18m39jooEesLsVvaw/pHyTR
MqU+606KXJLtxkxUF+O845XAnwh7AoV1Kpj1FKQ50uu0n3wrCoeA+FTWQYfuhuEa
o7FWtCOg1QFyqXjr11zqqFEUu3Rr0wV0ZsB8s7cjx9nx/p/ZAgMBAAGjgZ0wgZow
CQYDVR0TBAIwADAdBgNVHQ4EFgQU1ayfHKjbaCb80iJOjkrfzqI1IOcwTAYDVR0j
BEUwQ4AU/x8fDvRuuzZj/16a8TvWT3gNoYChFaQTMBExDzANBgNVBAMMBmJveXNv
boIUB83qTn+YNCz2NHbgXJHXcPwjl7cwEwYDVR0lBAwwCgYIKwYBBQUHAwIwCwYD
VR0PBAQDAgeAMA0GCSqGSIb3DQEBCwUAA4IBAQBaSW2wjU4QwHaf3ej6veBgU0gw
p48z1QPTgT8M9zdGFAdh28Hrgwj4SqxGzuVcKJ75rH66nQEXv/yNYSXki6d8C+Ks
024gZLV1dX3TDMydzJxz2hmyO8bPcJP57IrvTAI9XojPK1tOkmw9oXG2phP/spW/
6MlHeqEgvv67SnJh74ACODUaeTwdrb6fsosvnkXKKJNM6P/TN3IDDNeKPs/bBQIz
6182m4EfB8rSjZbaIu79eSsDIubSWxxtxcfXPEn13OgaK/2kgATxM/tepC2roWBD
XgvHr5XAPx8bAmsmbVj6vWiqS1WTKq/rBignaqK3SSDrBVHgLLI2egmcSGH4
-----END CERTIFICATE-----
