Certificate:
    Data:
        Version: 3 (0x2)
        Serial Number:
            7d:70:91:0f:bd:6f:6e:c3:61:8c:a0:c0:f4:e1:cd:64
        Signature Algorithm: sha256WithRSAEncryption
        Issuer: CN=boyson
        Validity
            Not Before: Feb 28 07:20:57 2023 GMT
            Not After : Jun  2 07:20:57 2025 GMT
        Subject: CN=pongsatorn_sawangklao
        Subject Public Key Info:
            Public Key Algorithm: rsaEncryption
                RSA Public-Key: (2048 bit)
                Modulus:
                    00:bc:e6:a7:61:07:8a:6e:c6:5f:f3:c6:06:a8:4d:
                    ae:9d:ae:ee:c0:d3:d5:6b:b9:4a:e2:9d:55:02:d7:
                    75:d6:81:b8:94:79:07:0c:f9:2e:a8:8e:40:5f:61:
                    14:9d:0a:84:be:40:aa:bc:d8:57:ec:a0:58:f2:ea:
                    5f:09:d7:e8:9c:99:dc:f3:29:51:a0:1e:cb:37:6f:
                    9e:d5:0e:38:8c:bf:92:7b:be:06:9b:dc:41:dc:f9:
                    3d:dc:56:bd:32:89:cc:5f:76:3c:66:87:fa:aa:f6:
                    55:70:0e:bb:f8:8d:03:2d:bb:f8:4f:a4:6c:be:18:
                    83:ef:f0:a7:08:83:c1:df:d5:85:54:69:32:6f:91:
                    7d:fc:27:72:6b:6d:1c:81:b8:02:4f:dc:15:a3:a7:
                    b1:ca:10:31:df:8e:60:a6:5d:ca:09:a0:88:fb:a2:
                    2a:f5:e4:28:18:0e:00:a1:26:e4:73:13:f4:2a:d2:
                    6a:59:70:66:37:79:70:98:1c:18:08:f3:3a:92:36:
                    ec:03:bd:57:80:7a:8a:c7:3a:ab:ce:74:15:f8:4f:
                    28:a6:d1:2d:dd:59:5b:95:32:d5:0e:35:9d:d1:e9:
                    c8:f6:10:d1:2b:7e:e9:56:39:77:8e:84:09:b1:42:
                    05:4f:4c:b6:27:28:50:a6:2a:64:69:07:e3:73:28:
                    46:1b
                Exponent: 65537 (0x10001)
        X509v3 extensions:
            X509v3 Basic Constraints: 
                CA:FALSE
            X509v3 Subject Key Identifier: 
                A8:97:6D:48:36:8B:D1:9A:B7:ED:36:06:60:DD:2C:30:E6:6C:1E:33
            X509v3 Authority Key Identifier: 
                keyid:FF:1F:1F:0E:F4:6E:BB:36:63:FF:5E:9A:F1:3B:D6:4F:78:0D:A1:80
                DirName:/CN=boyson
                serial:07:CD:EA:4E:7F:98:34:2C:F6:34:76:E0:5C:91:D7:70:FC:23:97:B7

            X509v3 Extended Key Usage: 
                TLS Web Client Authentication
            X509v3 Key Usage: 
                Digital Signature
    Signature Algorithm: sha256WithRSAEncryption
         44:d2:30:54:0b:0f:ce:85:b3:8b:ad:a2:85:da:25:ac:3b:b8:
         ef:e8:67:50:ba:1b:ad:b5:8a:1a:b1:36:d2:be:b1:95:5e:61:
         52:b2:25:26:93:8d:fd:0a:0b:db:93:e1:d5:20:48:e5:7e:02:
         b8:4c:b7:dd:e5:21:32:06:38:a7:d4:42:a7:7f:32:87:16:43:
         57:2f:44:83:eb:60:fd:59:03:5b:e4:35:cd:ef:f2:45:7d:89:
         3f:6d:9b:77:c6:67:cc:a6:38:7a:f4:51:09:fb:ac:4e:1d:75:
         5a:2d:b5:83:ba:c0:f2:4e:14:95:01:1f:fb:70:db:55:bd:af:
         7e:99:31:fe:e9:0a:10:cb:83:fd:ae:3d:af:f1:21:ed:ba:a1:
         ed:31:5e:8e:58:a0:23:bc:df:46:6f:a5:8d:56:12:a8:05:5e:
         4d:bd:28:1f:b9:df:8b:77:56:47:b4:3d:49:c3:51:fa:7b:54:
         a8:75:6b:3a:7a:d1:52:24:56:ae:bc:cc:5d:19:72:a4:a4:1c:
         c6:27:35:34:22:17:d6:74:d8:87:98:ac:3d:27:94:94:bf:31:
         5e:64:ed:08:ac:7a:13:cc:8a:28:ff:af:71:19:e4:e3:d6:6d:
         84:27:af:da:21:71:3a:78:bd:0f:1f:39:f8:9c:cc:7d:d1:18:
         0f:00:aa:1e
-----BEGIN CERTIFICATE-----
MIIDWTCCAkGgAwIBAgIQfXCRD71vbsNhjKDA9OHNZDANBgkqhkiG9w0BAQsFADAR
MQ8wDQYDVQQDDAZib3lzb24wHhcNMjMwMjI4MDcyMDU3WhcNMjUwNjAyMDcyMDU3
WjAgMR4wHAYDVQQDDBVwb25nc2F0b3JuX3Nhd2FuZ2tsYW8wggEiMA0GCSqGSIb3
DQEBAQUAA4IBDwAwggEKAoIBAQC85qdhB4puxl/zxgaoTa6dru7A09VruUrinVUC
13XWgbiUeQcM+S6ojkBfYRSdCoS+QKq82FfsoFjy6l8J1+icmdzzKVGgHss3b57V
DjiMv5J7vgab3EHc+T3cVr0yicxfdjxmh/qq9lVwDrv4jQMtu/hPpGy+GIPv8KcI
g8Hf1YVUaTJvkX38J3JrbRyBuAJP3BWjp7HKEDHfjmCmXcoJoIj7oir15CgYDgCh
JuRzE/Qq0mpZcGY3eXCYHBgI8zqSNuwDvVeAeorHOqvOdBX4Tyim0S3dWVuVMtUO
NZ3R6cj2ENErfulWOXeOhAmxQgVPTLYnKFCmKmRpB+NzKEYbAgMBAAGjgZ0wgZow
CQYDVR0TBAIwADAdBgNVHQ4EFgQUqJdtSDaL0Zq37TYGYN0sMOZsHjMwTAYDVR0j
BEUwQ4AU/x8fDvRuuzZj/16a8TvWT3gNoYChFaQTMBExDzANBgNVBAMMBmJveXNv
boIUB83qTn+YNCz2NHbgXJHXcPwjl7cwEwYDVR0lBAwwCgYIKwYBBQUHAwIwCwYD
VR0PBAQDAgeAMA0GCSqGSIb3DQEBCwUAA4IBAQBE0jBUCw/OhbOLraKF2iWsO7jv
6GdQuhuttYoasTbSvrGVXmFSsiUmk439Cgvbk+HVIEjlfgK4TLfd5SEyBjin1EKn
fzKHFkNXL0SD62D9WQNb5DXN7/JFfYk/bZt3xmfMpjh69FEJ+6xOHXVaLbWDusDy
ThSVAR/7cNtVva9+mTH+6QoQy4P9rj2v8SHtuqHtMV6OWKAjvN9Gb6WNVhKoBV5N
vSgfud+Ld1ZHtD1Jw1H6e1SodWs6etFSJFauvMxdGXKkpBzGJzU0IhfWdNiHmKw9
J5SUvzFeZO0IrHoTzIoo/69xGeTj1m2EJ6/aIXE6eL0PHzn4nMx90RgPAKoe
-----END CERTIFICATE-----
