Certificate:
    Data:
        Version: 3 (0x2)
        Serial Number:
            84:71:fc:80:d3:44:d5:65:72:06:bb:fb:31:e3:e9:cb
        Signature Algorithm: sha256WithRSAEncryption
        Issuer: CN=boyson
        Validity
            Not Before: Feb 22 05:54:22 2023 GMT
            Not After : May 27 05:54:22 2025 GMT
        Subject: CN=Pongsatorn_SAWANGKLAO
        Subject Public Key Info:
            Public Key Algorithm: rsaEncryption
                RSA Public-Key: (2048 bit)
                Modulus:
                    00:93:e1:c0:0c:a4:0a:e3:64:96:68:35:16:a4:0d:
                    21:06:19:67:32:24:92:f1:c6:cd:e4:ef:39:01:69:
                    cd:a3:5d:9a:bf:21:c4:fb:46:4f:6f:7e:49:80:6a:
                    c6:b1:71:b1:52:06:4c:fc:1e:73:6a:1e:f0:d5:21:
                    85:04:89:55:6e:ce:bb:bc:67:24:c8:22:90:d4:44:
                    c2:50:31:7d:d7:21:f0:22:59:0d:39:e4:90:04:fb:
                    e4:66:93:16:b7:4c:be:1a:52:e8:7e:d6:87:53:7b:
                    e3:4a:d4:f3:92:2b:88:68:7b:f5:37:62:5b:c8:3f:
                    d9:6c:38:0d:4b:8b:c7:9a:9e:74:b9:68:f5:52:ce:
                    d3:41:0a:88:9e:40:2c:64:ac:cb:fd:48:48:2f:3f:
                    c1:57:b6:ed:55:52:f0:9a:4c:67:18:6b:b5:18:28:
                    b7:d8:4f:a4:13:2b:91:29:d4:2e:94:22:b7:a9:65:
                    86:bd:ee:d0:a9:dc:32:b9:bc:de:8a:6e:a1:59:92:
                    71:d6:4b:17:bc:11:14:23:d8:cc:31:9d:ac:c7:d1:
                    ea:a2:9b:8e:c7:4b:56:9c:f6:ff:8b:ae:42:a1:36:
                    dd:7a:01:13:a3:07:f0:68:13:4b:0d:66:08:69:9b:
                    a2:e5:a1:ce:00:19:71:60:cd:5e:bf:70:60:5f:89:
                    61:e5
                Exponent: 65537 (0x10001)
        X509v3 extensions:
            X509v3 Basic Constraints: 
                CA:FALSE
            X509v3 Subject Key Identifier: 
                19:E8:27:48:CA:21:2B:26:17:97:B1:5E:B0:4A:82:16:1B:54:83:91
            X509v3 Authority Key Identifier: 
                keyid:FF:1F:1F:0E:F4:6E:BB:36:63:FF:5E:9A:F1:3B:D6:4F:78:0D:A1:80
                DirName:/CN=boyson
                serial:07:CD:EA:4E:7F:98:34:2C:F6:34:76:E0:5C:91:D7:70:FC:23:97:B7

            X509v3 Extended Key Usage: 
                TLS Web Client Authentication
            X509v3 Key Usage: 
                Digital Signature
    Signature Algorithm: sha256WithRSAEncryption
         0b:04:4d:be:8d:93:ba:42:22:5f:33:8f:17:38:9e:34:5b:ea:
         9a:28:5b:0d:f8:e0:b2:b4:d6:1d:b0:fe:a1:4c:c3:60:a7:37:
         73:52:32:56:20:aa:d1:a0:87:c2:3b:85:9a:c3:41:11:57:b6:
         5a:81:e7:fb:63:96:80:6e:e9:02:0a:05:28:b5:6f:1b:35:0b:
         9f:a4:2d:f2:90:0b:3b:8a:2c:35:03:f8:9a:fd:10:ab:57:02:
         e3:e4:bb:dd:8d:35:75:ac:72:9d:f7:13:d2:db:ea:47:69:3b:
         1c:d5:44:8d:16:02:43:17:e3:25:0b:6c:78:8f:d8:f4:a8:91:
         40:d7:89:f7:8e:79:ba:80:14:4c:77:62:49:43:dd:28:31:b1:
         25:c8:bf:34:9b:a0:44:7e:8d:b8:6c:ad:fb:73:bf:bd:d0:93:
         b6:6e:99:dc:90:60:3d:4f:2b:8b:28:7e:d4:d2:c2:dc:32:af:
         2e:8d:93:1b:c7:8b:b8:c1:4f:bb:10:3a:09:77:05:12:05:d6:
         15:33:00:6e:76:b0:e8:e7:01:c7:26:3a:f8:6a:20:da:2b:c8:
         f7:ed:26:60:65:0f:67:42:f0:50:34:73:e1:69:19:be:4a:35:
         8c:ed:6a:00:cb:fb:0f:a1:31:f7:80:89:27:db:d9:09:cd:f3:
         fd:c2:76:f2
-----BEGIN CERTIFICATE-----
MIIDWjCCAkKgAwIBAgIRAIRx/IDTRNVlcga7+zHj6cswDQYJKoZIhvcNAQELBQAw
ETEPMA0GA1UEAwwGYm95c29uMB4XDTIzMDIyMjA1NTQyMloXDTI1MDUyNzA1NTQy
MlowIDEeMBwGA1UEAwwVUG9uZ3NhdG9ybl9TQVdBTkdLTEFPMIIBIjANBgkqhkiG
9w0BAQEFAAOCAQ8AMIIBCgKCAQEAk+HADKQK42SWaDUWpA0hBhlnMiSS8cbN5O85
AWnNo12avyHE+0ZPb35JgGrGsXGxUgZM/B5zah7w1SGFBIlVbs67vGckyCKQ1ETC
UDF91yHwIlkNOeSQBPvkZpMWt0y+GlLoftaHU3vjStTzkiuIaHv1N2JbyD/ZbDgN
S4vHmp50uWj1Us7TQQqInkAsZKzL/UhILz/BV7btVVLwmkxnGGu1GCi32E+kEyuR
KdQulCK3qWWGve7Qqdwyubzeim6hWZJx1ksXvBEUI9jMMZ2sx9HqopuOx0tWnPb/
i65CoTbdegETowfwaBNLDWYIaZui5aHOABlxYM1ev3BgX4lh5QIDAQABo4GdMIGa
MAkGA1UdEwQCMAAwHQYDVR0OBBYEFBnoJ0jKISsmF5exXrBKghYbVIORMEwGA1Ud
IwRFMEOAFP8fHw70brs2Y/9emvE71k94DaGAoRWkEzARMQ8wDQYDVQQDDAZib3lz
b26CFAfN6k5/mDQs9jR24FyR13D8I5e3MBMGA1UdJQQMMAoGCCsGAQUFBwMCMAsG
A1UdDwQEAwIHgDANBgkqhkiG9w0BAQsFAAOCAQEACwRNvo2TukIiXzOPFzieNFvq
mihbDfjgsrTWHbD+oUzDYKc3c1IyViCq0aCHwjuFmsNBEVe2WoHn+2OWgG7pAgoF
KLVvGzULn6Qt8pALO4osNQP4mv0Qq1cC4+S73Y01daxynfcT0tvqR2k7HNVEjRYC
QxfjJQtseI/Y9KiRQNeJ9455uoAUTHdiSUPdKDGxJci/NJugRH6NuGyt+3O/vdCT
tm6Z3JBgPU8riyh+1NLC3DKvLo2TG8eLuMFPuxA6CXcFEgXWFTMAbnaw6OcBxyY6
+Gog2ivI9+0mYGUPZ0LwUDRz4WkZvko1jO1qAMv7D6Ex94CJJ9vZCc3z/cJ28g==
-----END CERTIFICATE-----
