Certificate:
    Data:
        Version: 3 (0x2)
        Serial Number:
            9c:ab:c0:ba:7b:c9:ba:8f:a2:ea:dd:ce:c4:5a:ce:b5
        Signature Algorithm: sha256WithRSAEncryption
        Issuer: CN=boyson
        Validity
            Not Before: Feb 21 06:22:08 2023 GMT
            Not After : May 26 06:22:08 2025 GMT
        Subject: CN=Pongsatorn_SAWANGKLAO
        Subject Public Key Info:
            Public Key Algorithm: rsaEncryption
                RSA Public-Key: (2048 bit)
                Modulus:
                    00:ca:28:fa:e7:af:39:3e:ab:d7:b3:bd:71:87:fc:
                    38:7a:c0:21:dc:c5:03:48:68:56:1e:25:f2:58:0b:
                    69:e6:6a:41:b3:17:9f:49:e1:d7:e4:a5:43:90:aa:
                    03:c9:b9:29:d9:53:28:e3:7d:d9:ee:ef:dd:9e:fd:
                    40:df:29:02:bc:a3:b2:03:52:1a:7d:dc:f5:0c:dd:
                    7e:4a:11:29:42:0e:12:b4:0a:76:ad:eb:4d:85:a2:
                    60:d1:bc:08:7f:1b:bb:a4:6a:5f:05:36:92:b3:d5:
                    1a:c9:14:03:97:f4:20:b4:39:98:e1:91:18:57:11:
                    58:4d:b1:75:c6:a7:91:72:4e:08:3e:d6:c8:c0:ba:
                    b7:ab:85:0a:36:ca:eb:91:22:ce:08:33:0e:80:a1:
                    5d:06:03:b4:65:87:f6:f4:73:f4:67:5c:26:e4:68:
                    bd:f7:b1:68:02:4b:08:24:77:95:1f:4e:f3:24:88:
                    cb:9f:f1:99:86:1b:26:85:a9:ca:26:01:73:a9:ea:
                    c6:52:49:27:7b:d3:1b:90:c8:06:2d:7a:41:4e:db:
                    37:8f:f8:ac:88:fe:71:f1:71:5e:df:64:aa:8a:49:
                    ca:70:d2:86:a6:19:af:a2:97:c3:81:af:4c:a6:b3:
                    47:74:5f:03:71:5c:be:4a:5c:6f:5f:ed:75:d2:f3:
                    41:4b
                Exponent: 65537 (0x10001)
        X509v3 extensions:
            X509v3 Basic Constraints: 
                CA:FALSE
            X509v3 Subject Key Identifier: 
                CB:D0:E5:8F:A6:5B:CD:58:85:5D:87:54:80:58:21:66:55:F7:85:68
            X509v3 Authority Key Identifier: 
                keyid:FF:1F:1F:0E:F4:6E:BB:36:63:FF:5E:9A:F1:3B:D6:4F:78:0D:A1:80
                DirName:/CN=boyson
                serial:07:CD:EA:4E:7F:98:34:2C:F6:34:76:E0:5C:91:D7:70:FC:23:97:B7

            X509v3 Extended Key Usage: 
                TLS Web Client Authentication
            X509v3 Key Usage: 
                Digital Signature
    Signature Algorithm: sha256WithRSAEncryption
         3f:84:ee:5f:f3:ce:64:3f:3e:2a:9e:d7:84:90:e8:44:bf:93:
         a9:e1:06:12:bb:46:1d:51:8a:21:94:b0:b0:ff:f2:8b:ea:95:
         e6:08:af:65:93:30:ba:73:3d:d0:14:80:47:77:b2:81:fc:53:
         21:88:a5:67:63:66:dc:a6:b3:f8:8e:1e:49:6f:00:3b:c6:a3:
         78:c6:42:ee:29:81:d3:5c:a5:b3:1d:da:1c:9e:6a:8d:fd:2c:
         c7:44:a8:5a:e3:8a:18:25:74:d3:4b:a2:a7:73:49:8a:b4:87:
         f4:8f:ad:a3:2c:aa:28:13:ea:7f:1a:b4:c5:97:91:79:3d:d4:
         35:a5:49:5f:67:de:90:7d:76:36:1d:5f:b8:a8:0c:a1:65:47:
         6f:bd:0c:1a:f7:c3:73:94:a0:c3:b4:08:c9:c4:60:4b:9c:80:
         a6:5a:a0:d7:d2:38:a7:cd:6e:fc:cc:97:3d:ae:43:da:dc:ee:
         44:6f:8a:58:2a:34:22:4e:1c:1c:fb:e5:67:af:18:35:be:70:
         3f:71:b1:3b:6e:e4:40:2d:1b:73:d5:ab:fb:6a:4d:03:11:48:
         9f:d8:f1:63:b1:21:a2:50:8f:ae:50:ee:b5:4e:ff:70:97:55:
         ed:49:60:df:9e:f9:84:da:e4:e8:8e:a0:f6:c9:f0:b1:c3:db:
         74:04:3f:f4
-----BEGIN CERTIFICATE-----
MIIDWjCCAkKgAwIBAgIRAJyrwLp7ybqPourdzsRazrUwDQYJKoZIhvcNAQELBQAw
ETEPMA0GA1UEAwwGYm95c29uMB4XDTIzMDIyMTA2MjIwOFoXDTI1MDUyNjA2MjIw
OFowIDEeMBwGA1UEAwwVUG9uZ3NhdG9ybl9TQVdBTkdLTEFPMIIBIjANBgkqhkiG
9w0BAQEFAAOCAQ8AMIIBCgKCAQEAyij65685PqvXs71xh/w4esAh3MUDSGhWHiXy
WAtp5mpBsxefSeHX5KVDkKoDybkp2VMo433Z7u/dnv1A3ykCvKOyA1Iafdz1DN1+
ShEpQg4StAp2retNhaJg0bwIfxu7pGpfBTaSs9UayRQDl/QgtDmY4ZEYVxFYTbF1
xqeRck4IPtbIwLq3q4UKNsrrkSLOCDMOgKFdBgO0ZYf29HP0Z1wm5Gi997FoAksI
JHeVH07zJIjLn/GZhhsmhanKJgFzqerGUkkne9MbkMgGLXpBTts3j/isiP5x8XFe
32SqiknKcNKGphmvopfDga9MprNHdF8DcVy+SlxvX+110vNBSwIDAQABo4GdMIGa
MAkGA1UdEwQCMAAwHQYDVR0OBBYEFMvQ5Y+mW81YhV2HVIBYIWZV94VoMEwGA1Ud
IwRFMEOAFP8fHw70brs2Y/9emvE71k94DaGAoRWkEzARMQ8wDQYDVQQDDAZib3lz
b26CFAfN6k5/mDQs9jR24FyR13D8I5e3MBMGA1UdJQQMMAoGCCsGAQUFBwMCMAsG
A1UdDwQEAwIHgDANBgkqhkiG9w0BAQsFAAOCAQEAP4TuX/POZD8+Kp7XhJDoRL+T
qeEGErtGHVGKIZSwsP/yi+qV5givZZMwunM90BSAR3eygfxTIYilZ2Nm3Kaz+I4e
SW8AO8ajeMZC7imB01ylsx3aHJ5qjf0sx0SoWuOKGCV000uip3NJirSH9I+toyyq
KBPqfxq0xZeReT3UNaVJX2fekH12Nh1fuKgMoWVHb70MGvfDc5Sgw7QIycRgS5yA
plqg19I4p81u/MyXPa5D2tzuRG+KWCo0Ik4cHPvlZ68YNb5wP3GxO27kQC0bc9Wr
+2pNAxFIn9jxY7EholCPrlDutU7/cJdV7Ulg3575hNrk6I6g9snwscPbdAQ/9A==
-----END CERTIFICATE-----
