Certificate:
    Data:
        Version: 3 (0x2)
        Serial Number:
            a6:c9:2c:33:b2:04:73:28:9f:24:3d:71:b7:18:9a:10
        Signature Algorithm: sha256WithRSAEncryption
        Issuer: CN=boyson
        Validity
            Not Before: Feb 27 03:58:16 2023 GMT
            Not After : Jun  1 03:58:16 2025 GMT
        Subject: CN=Pongsatorn_SAWANGKLAO
        Subject Public Key Info:
            Public Key Algorithm: rsaEncryption
                RSA Public-Key: (2048 bit)
                Modulus:
                    00:cd:bb:4d:b9:92:26:93:63:05:f6:24:ba:93:66:
                    d0:f9:44:97:83:b2:af:32:e3:52:0e:59:16:ae:10:
                    ee:df:f1:a7:e3:80:2f:60:65:8f:cf:c3:1e:db:b9:
                    8d:89:98:ca:dd:6f:75:8a:09:e4:5c:ba:d7:1f:ff:
                    07:24:48:a0:a4:72:31:8f:26:2c:2a:fa:0b:25:6f:
                    38:84:93:e8:bc:b8:a3:3f:51:ee:4c:f4:35:a7:c6:
                    40:2f:fe:a1:9f:0c:3d:10:b4:b8:00:91:05:1d:ff:
                    3d:95:b7:8e:7c:74:9f:7a:90:04:15:a9:d0:eb:21:
                    49:2f:eb:9c:3c:f8:d2:11:c5:3f:16:3a:e7:86:95:
                    6d:3d:6c:a8:57:7f:5e:94:93:9e:fe:24:07:00:49:
                    34:52:8c:87:62:ae:04:7a:ce:23:06:51:d2:a4:66:
                    99:ba:4c:d5:c4:c8:17:b5:e4:e4:40:1e:8a:cc:9d:
                    87:a8:11:31:62:19:00:a1:7e:58:95:d3:f0:23:11:
                    97:fe:8c:20:d7:1f:c7:b5:53:94:d5:45:a4:24:88:
                    d4:a1:0b:e0:5c:8c:2c:1a:7b:f7:37:5d:ef:c3:3e:
                    a0:93:8d:c7:35:39:93:bc:1d:28:a7:d2:a9:4a:47:
                    c3:b8:e2:8e:e1:b7:11:bd:87:ff:80:74:27:e1:85:
                    6b:97
                Exponent: 65537 (0x10001)
        X509v3 extensions:
            X509v3 Basic Constraints: 
                CA:FALSE
            X509v3 Subject Key Identifier: 
                C3:10:43:98:CB:22:65:E4:27:6F:81:59:98:2A:A8:98:34:9D:A7:D4
            X509v3 Authority Key Identifier: 
                keyid:FF:1F:1F:0E:F4:6E:BB:36:63:FF:5E:9A:F1:3B:D6:4F:78:0D:A1:80
                DirName:/CN=boyson
                serial:07:CD:EA:4E:7F:98:34:2C:F6:34:76:E0:5C:91:D7:70:FC:23:97:B7

            X509v3 Extended Key Usage: 
                TLS Web Client Authentication
            X509v3 Key Usage: 
                Digital Signature
    Signature Algorithm: sha256WithRSAEncryption
         25:ed:b3:c9:2b:cc:2d:e7:3e:d3:d7:e0:39:a1:f5:f7:b1:75:
         9b:b9:ff:64:ed:a1:f5:90:05:20:d5:a5:32:74:b4:11:ae:0f:
         d5:dd:08:cf:28:e7:cd:04:de:0d:48:00:af:c6:92:93:a9:0b:
         be:d4:cc:e7:af:9a:9e:94:65:27:61:1a:3d:23:bd:44:ce:6d:
         de:b9:66:60:5d:b0:c7:d8:3f:cd:07:77:6a:37:d7:80:2b:1a:
         35:00:ce:7e:a3:ee:76:ce:05:e2:c0:5e:dd:95:06:6e:b8:45:
         c9:cf:f4:32:a4:42:26:41:28:3c:ab:ba:4b:b0:4f:55:03:9e:
         85:c8:97:56:6f:29:21:58:f5:30:94:56:54:0d:39:7c:f7:f1:
         41:0b:e3:a1:67:ca:e7:b1:4e:19:c2:50:13:a2:17:f2:fa:92:
         33:ff:d1:7f:82:41:2e:ed:f2:71:8f:b9:8e:17:65:f4:18:0e:
         94:ed:59:5a:36:b4:fe:0c:38:11:b9:96:59:5a:83:30:10:6f:
         1b:93:8a:b1:6b:ab:b1:64:9d:ec:18:ab:4b:00:d8:a9:8a:bc:
         28:0f:d4:18:b8:b9:b9:9a:db:10:41:5a:0a:5d:d9:d4:b7:68:
         e3:7a:72:df:6f:66:18:b4:0c:c2:98:ec:64:a9:d6:fe:dc:b5:
         5d:15:86:29
-----BEGIN CERTIFICATE-----
MIIDWjCCAkKgAwIBAgIRAKbJLDOyBHMonyQ9cbcYmhAwDQYJKoZIhvcNAQELBQAw
ETEPMA0GA1UEAwwGYm95c29uMB4XDTIzMDIyNzAzNTgxNloXDTI1MDYwMTAzNTgx
NlowIDEeMBwGA1UEAwwVUG9uZ3NhdG9ybl9TQVdBTkdLTEFPMIIBIjANBgkqhkiG
9w0BAQEFAAOCAQ8AMIIBCgKCAQEAzbtNuZImk2MF9iS6k2bQ+USXg7KvMuNSDlkW
rhDu3/Gn44AvYGWPz8Me27mNiZjK3W91ignkXLrXH/8HJEigpHIxjyYsKvoLJW84
hJPovLijP1HuTPQ1p8ZAL/6hnww9ELS4AJEFHf89lbeOfHSfepAEFanQ6yFJL+uc
PPjSEcU/FjrnhpVtPWyoV39elJOe/iQHAEk0UoyHYq4Ees4jBlHSpGaZukzVxMgX
teTkQB6KzJ2HqBExYhkAoX5YldPwIxGX/owg1x/HtVOU1UWkJIjUoQvgXIwsGnv3
N13vwz6gk43HNTmTvB0op9KpSkfDuOKO4bcRvYf/gHQn4YVrlwIDAQABo4GdMIGa
MAkGA1UdEwQCMAAwHQYDVR0OBBYEFMMQQ5jLImXkJ2+BWZgqqJg0nafUMEwGA1Ud
IwRFMEOAFP8fHw70brs2Y/9emvE71k94DaGAoRWkEzARMQ8wDQYDVQQDDAZib3lz
b26CFAfN6k5/mDQs9jR24FyR13D8I5e3MBMGA1UdJQQMMAoGCCsGAQUFBwMCMAsG
A1UdDwQEAwIHgDANBgkqhkiG9w0BAQsFAAOCAQEAJe2zySvMLec+09fgOaH197F1
m7n/ZO2h9ZAFINWlMnS0Ea4P1d0IzyjnzQTeDUgAr8aSk6kLvtTM56+anpRlJ2Ea
PSO9RM5t3rlmYF2wx9g/zQd3ajfXgCsaNQDOfqPuds4F4sBe3ZUGbrhFyc/0MqRC
JkEoPKu6S7BPVQOehciXVm8pIVj1MJRWVA05fPfxQQvjoWfK57FOGcJQE6IX8vqS
M//Rf4JBLu3ycY+5jhdl9BgOlO1ZWja0/gw4EbmWWVqDMBBvG5OKsWursWSd7Bir
SwDYqYq8KA/UGLi5uZrbEEFaCl3Z1Ldo43py329mGLQMwpjsZKnW/ty1XRWGKQ==
-----END CERTIFICATE-----
