Certificate:
    Data:
        Version: 3 (0x2)
        Serial Number:
            b4:e9:5f:a5:0f:23:45:e8:74:04:1d:32:2f:e3:c3:02
        Signature Algorithm: sha256WithRSAEncryption
        Issuer: CN=boyson
        Validity
            Not Before: Feb 23 09:47:49 2023 GMT
            Not After : May 28 09:47:49 2025 GMT
        Subject: CN=pongsatorn_sawangklao
        Subject Public Key Info:
            Public Key Algorithm: rsaEncryption
                RSA Public-Key: (2048 bit)
                Modulus:
                    00:c4:c7:9b:42:75:97:70:bf:9d:ac:e9:a9:db:1f:
                    53:66:41:fa:5c:e2:9a:5b:3f:d2:cc:96:ce:59:39:
                    d6:86:13:0a:01:99:93:b0:40:60:22:1c:5d:d3:45:
                    31:e4:07:db:cc:c4:00:ba:72:e0:5e:c0:34:a2:ef:
                    cb:06:97:cd:1a:db:e2:50:1d:2e:8f:30:78:1f:41:
                    6b:6b:db:34:e1:f9:ed:13:f2:22:fe:ae:0e:06:59:
                    f9:9f:dd:62:ae:48:2d:83:d1:22:b6:20:b5:d9:12:
                    46:ad:fd:7c:30:24:00:5d:27:ff:c0:f3:99:2c:51:
                    0f:58:e8:41:37:19:86:ab:bb:24:b1:8d:77:06:10:
                    c1:3d:50:8f:1f:a7:f1:eb:ad:e0:99:ad:4e:de:aa:
                    36:21:1f:4c:6a:69:e2:14:7f:47:2c:d5:48:29:38:
                    35:65:80:d8:55:c8:fd:0b:1d:3d:f6:cd:bd:8e:5b:
                    69:b8:b9:c0:00:06:f4:81:ff:62:ba:d2:c9:48:91:
                    91:82:7f:11:76:b5:ca:2f:3f:82:2b:a3:d1:5b:91:
                    f7:c8:3c:92:59:29:d1:40:7f:4b:2b:e4:94:26:23:
                    d3:8d:e2:c6:3c:8a:32:d9:7d:35:ce:9a:f7:03:e3:
                    b4:60:1a:4d:50:d6:9d:7d:be:ee:32:81:6b:42:0c:
                    0c:51
                Exponent: 65537 (0x10001)
        X509v3 extensions:
            X509v3 Basic Constraints: 
                CA:FALSE
            X509v3 Subject Key Identifier: 
                CA:88:CA:7C:A3:FE:C5:B1:CB:20:B1:3C:DD:B1:02:8E:8A:4E:82:2C
            X509v3 Authority Key Identifier: 
                keyid:FF:1F:1F:0E:F4:6E:BB:36:63:FF:5E:9A:F1:3B:D6:4F:78:0D:A1:80
                DirName:/CN=boyson
                serial:07:CD:EA:4E:7F:98:34:2C:F6:34:76:E0:5C:91:D7:70:FC:23:97:B7

            X509v3 Extended Key Usage: 
                TLS Web Client Authentication
            X509v3 Key Usage: 
                Digital Signature
    Signature Algorithm: sha256WithRSAEncryption
         0c:04:82:5b:56:77:af:38:12:d0:96:cb:a1:b5:35:78:57:08:
         04:64:c5:e0:3e:a3:61:39:8f:4d:9f:9c:67:d5:01:8d:47:7d:
         07:01:01:81:bc:63:31:8f:07:96:b6:70:fd:3d:53:ef:b8:a7:
         b4:89:30:1b:e6:77:d7:e8:7d:4c:b0:ce:40:a3:86:39:e0:26:
         e0:79:9a:fa:74:db:21:dd:e2:70:3f:9b:49:94:71:b5:0d:4e:
         f8:bd:16:df:3c:52:e1:3e:06:c0:7b:15:c9:d4:e0:10:b0:7d:
         5f:92:92:7a:3e:8e:fd:ae:cb:55:ce:7e:c5:ae:27:64:a8:ce:
         1f:40:08:94:a8:81:19:71:5b:79:42:3b:6f:1e:79:cc:43:32:
         00:d0:82:17:a1:ea:8d:f3:56:7d:60:17:e7:18:bf:e4:33:62:
         8f:0a:3f:f8:44:b2:e3:6a:37:9b:eb:d3:d0:29:f3:bd:69:1e:
         b6:c8:7f:6a:c0:db:c9:50:db:c4:41:55:8f:37:83:ca:33:3b:
         b6:5c:03:45:95:8f:7b:b4:85:62:81:9e:0c:62:98:3c:11:06:
         c6:75:01:84:1d:ab:14:7d:32:2f:df:e1:47:d5:75:66:a0:25:
         6e:e3:e1:b5:80:14:e2:bd:1b:b6:27:ee:9b:d1:ec:6e:83:d7:
         dd:65:b5:12
-----BEGIN CERTIFICATE-----
MIIDWjCCAkKgAwIBAgIRALTpX6UPI0XodAQdMi/jwwIwDQYJKoZIhvcNAQELBQAw
ETEPMA0GA1UEAwwGYm95c29uMB4XDTIzMDIyMzA5NDc0OVoXDTI1MDUyODA5NDc0
OVowIDEeMBwGA1UEAwwVcG9uZ3NhdG9ybl9zYXdhbmdrbGFvMIIBIjANBgkqhkiG
9w0BAQEFAAOCAQ8AMIIBCgKCAQEAxMebQnWXcL+drOmp2x9TZkH6XOKaWz/SzJbO
WTnWhhMKAZmTsEBgIhxd00Ux5AfbzMQAunLgXsA0ou/LBpfNGtviUB0ujzB4H0Fr
a9s04fntE/Ii/q4OBln5n91irkgtg9EitiC12RJGrf18MCQAXSf/wPOZLFEPWOhB
NxmGq7sksY13BhDBPVCPH6fx663gma1O3qo2IR9MamniFH9HLNVIKTg1ZYDYVcj9
Cx099s29jltpuLnAAAb0gf9iutLJSJGRgn8RdrXKLz+CK6PRW5H3yDySWSnRQH9L
K+SUJiPTjeLGPIoy2X01zpr3A+O0YBpNUNadfb7uMoFrQgwMUQIDAQABo4GdMIGa
MAkGA1UdEwQCMAAwHQYDVR0OBBYEFMqIynyj/sWxyyCxPN2xAo6KToIsMEwGA1Ud
IwRFMEOAFP8fHw70brs2Y/9emvE71k94DaGAoRWkEzARMQ8wDQYDVQQDDAZib3lz
b26CFAfN6k5/mDQs9jR24FyR13D8I5e3MBMGA1UdJQQMMAoGCCsGAQUFBwMCMAsG
A1UdDwQEAwIHgDANBgkqhkiG9w0BAQsFAAOCAQEADASCW1Z3rzgS0JbLobU1eFcI
BGTF4D6jYTmPTZ+cZ9UBjUd9BwEBgbxjMY8HlrZw/T1T77intIkwG+Z31+h9TLDO
QKOGOeAm4Hma+nTbId3icD+bSZRxtQ1O+L0W3zxS4T4GwHsVydTgELB9X5KSej6O
/a7LVc5+xa4nZKjOH0AIlKiBGXFbeUI7bx55zEMyANCCF6HqjfNWfWAX5xi/5DNi
jwo/+ESy42o3m+vT0CnzvWketsh/asDbyVDbxEFVjzeDyjM7tlwDRZWPe7SFYoGe
DGKYPBEGxnUBhB2rFH0yL9/hR9V1ZqAlbuPhtYAU4r0btifum9HsboPX3WW1Eg==
-----END CERTIFICATE-----
