Certificate:
    Data:
        Version: 3 (0x2)
        Serial Number:
            b5:cf:8a:1b:35:7f:e8:b7:ba:4f:6f:fe:6a:0e:51:b6
        Signature Algorithm: sha256WithRSAEncryption
        Issuer: CN=boyson
        Validity
            Not Before: Feb 27 06:39:19 2023 GMT
            Not After : Jun  1 06:39:19 2025 GMT
        Subject: CN=Pongsatorn_SAWANGKLAO
        Subject Public Key Info:
            Public Key Algorithm: rsaEncryption
                RSA Public-Key: (2048 bit)
                Modulus:
                    00:b6:3f:88:49:bb:70:f2:61:78:ca:05:1c:01:a7:
                    0a:cd:68:c5:4b:d6:be:cd:fd:2a:3d:99:55:c2:4a:
                    ae:de:c5:db:cc:77:fa:9e:05:e8:04:46:3b:ec:d0:
                    51:ea:fe:b0:27:7d:4e:91:e7:70:db:16:9c:52:43:
                    39:de:85:25:5d:59:6e:03:f7:cf:ec:b5:a6:6b:e9:
                    08:44:09:50:3e:fc:ec:fb:7a:71:5d:77:70:57:e9:
                    69:92:39:49:07:5a:3f:02:9f:e5:4d:05:1d:93:b4:
                    f4:ca:35:e0:e7:c4:be:23:3f:48:94:60:2e:9b:c4:
                    1a:5c:c0:16:d1:01:35:5b:8e:97:03:35:ec:65:9a:
                    7e:9c:25:ea:d6:a9:d3:6a:57:22:08:8b:03:4a:75:
                    3c:45:b4:bf:84:7d:13:1d:da:17:2b:17:62:fb:bf:
                    62:ab:74:e7:24:8a:9a:c8:74:9c:7d:82:50:84:d6:
                    fa:45:ce:c7:0c:53:ce:1c:9a:4e:c7:d7:53:df:c1:
                    df:c6:7d:bf:68:16:c4:5b:98:43:87:89:08:08:fd:
                    3d:25:77:a7:b2:da:5c:8e:05:67:82:40:02:13:e1:
                    d8:d3:cd:05:b1:cf:3f:6c:89:cb:bd:a6:f0:f0:8d:
                    83:0d:e6:ff:78:dc:4e:c3:0a:d8:88:be:04:23:08:
                    30:dd
                Exponent: 65537 (0x10001)
        X509v3 extensions:
            X509v3 Basic Constraints: 
                CA:FALSE
            X509v3 Subject Key Identifier: 
                64:E5:7B:EE:86:96:A3:CE:24:94:C6:EA:E9:98:43:D6:00:CC:7B:79
            X509v3 Authority Key Identifier: 
                keyid:FF:1F:1F:0E:F4:6E:BB:36:63:FF:5E:9A:F1:3B:D6:4F:78:0D:A1:80
                DirName:/CN=boyson
                serial:07:CD:EA:4E:7F:98:34:2C:F6:34:76:E0:5C:91:D7:70:FC:23:97:B7

            X509v3 Extended Key Usage: 
                TLS Web Client Authentication
            X509v3 Key Usage: 
                Digital Signature
    Signature Algorithm: sha256WithRSAEncryption
         93:63:20:f1:e2:e5:7a:35:93:8a:16:21:d5:57:bc:9a:c9:b1:
         de:24:75:0f:ca:a1:0e:60:38:b8:67:ff:e4:01:2f:54:d7:90:
         5e:e0:2a:7b:19:54:87:b1:04:96:0f:62:3e:95:6e:fb:38:3d:
         5f:da:3b:a7:f8:20:09:34:84:dd:2b:43:c9:7e:a9:aa:09:ba:
         e6:fb:ed:12:b4:d0:91:5f:b6:3c:9f:1e:4f:89:41:2f:e2:8a:
         76:fd:98:f5:30:c3:e2:55:5b:be:0c:6a:4f:eb:76:b2:4b:7b:
         5d:7e:43:8c:51:dd:0a:98:4c:cd:54:3f:c6:63:59:9b:7f:96:
         7e:25:7f:3b:4e:56:79:4f:8a:48:0e:66:7d:3c:85:1c:92:48:
         bf:63:cd:3f:b4:04:23:42:4f:6f:d5:9c:47:de:a3:16:10:a9:
         67:8e:e3:de:bd:75:2b:dd:43:56:53:ba:e7:75:d6:57:10:53:
         0e:5d:4f:0a:f4:61:d8:82:6c:7d:39:30:d3:c1:00:51:8c:95:
         f8:2f:29:8c:59:51:fd:1d:74:6f:6d:ef:08:73:c0:a1:1b:a7:
         b5:da:ca:9d:29:23:e3:d2:95:02:38:dd:4c:5e:3b:2f:67:e0:
         19:6a:a4:de:d6:40:0f:63:89:f1:da:98:9d:56:57:9e:5d:d1:
         66:40:2d:17
-----BEGIN CERTIFICATE-----
MIIDWjCCAkKgAwIBAgIRALXPihs1f+i3uk9v/moOUbYwDQYJKoZIhvcNAQELBQAw
ETEPMA0GA1UEAwwGYm95c29uMB4XDTIzMDIyNzA2MzkxOVoXDTI1MDYwMTA2Mzkx
OVowIDEeMBwGA1UEAwwVUG9uZ3NhdG9ybl9TQVdBTkdLTEFPMIIBIjANBgkqhkiG
9w0BAQEFAAOCAQ8AMIIBCgKCAQEAtj+ISbtw8mF4ygUcAacKzWjFS9a+zf0qPZlV
wkqu3sXbzHf6ngXoBEY77NBR6v6wJ31Okedw2xacUkM53oUlXVluA/fP7LWma+kI
RAlQPvzs+3pxXXdwV+lpkjlJB1o/Ap/lTQUdk7T0yjXg58S+Iz9IlGAum8QaXMAW
0QE1W46XAzXsZZp+nCXq1qnTalciCIsDSnU8RbS/hH0THdoXKxdi+79iq3TnJIqa
yHScfYJQhNb6Rc7HDFPOHJpOx9dT38Hfxn2/aBbEW5hDh4kICP09JXenstpcjgVn
gkACE+HY080Fsc8/bInLvabw8I2DDeb/eNxOwwrYiL4EIwgw3QIDAQABo4GdMIGa
MAkGA1UdEwQCMAAwHQYDVR0OBBYEFGTle+6GlqPOJJTG6umYQ9YAzHt5MEwGA1Ud
IwRFMEOAFP8fHw70brs2Y/9emvE71k94DaGAoRWkEzARMQ8wDQYDVQQDDAZib3lz
b26CFAfN6k5/mDQs9jR24FyR13D8I5e3MBMGA1UdJQQMMAoGCCsGAQUFBwMCMAsG
A1UdDwQEAwIHgDANBgkqhkiG9w0BAQsFAAOCAQEAk2Mg8eLlejWTihYh1Ve8msmx
3iR1D8qhDmA4uGf/5AEvVNeQXuAqexlUh7EElg9iPpVu+zg9X9o7p/ggCTSE3StD
yX6pqgm65vvtErTQkV+2PJ8eT4lBL+KKdv2Y9TDD4lVbvgxqT+t2skt7XX5DjFHd
CphMzVQ/xmNZm3+WfiV/O05WeU+KSA5mfTyFHJJIv2PNP7QEI0JPb9WcR96jFhCp
Z47j3r11K91DVlO653XWVxBTDl1PCvRh2IJsfTkw08EAUYyV+C8pjFlR/R10b23v
CHPAoRuntdrKnSkj49KVAjjdTF47L2fgGWqk3tZAD2OJ8dqYnVZXnl3RZkAtFw==
-----END CERTIFICATE-----
