Certificate:
    Data:
        Version: 3 (0x2)
        Serial Number:
            b9:50:c4:05:4b:11:1e:79:e9:cb:f6:d9:b4:83:fb:bc
        Signature Algorithm: sha256WithRSAEncryption
        Issuer: CN=boyson
        Validity
            Not Before: Feb 24 09:50:27 2023 GMT
            Not After : May 29 09:50:27 2025 GMT
        Subject: CN=pongsatorn_sawangklao
        Subject Public Key Info:
            Public Key Algorithm: rsaEncryption
                RSA Public-Key: (2048 bit)
                Modulus:
                    00:dc:6c:64:24:0d:e3:7b:ca:59:53:8f:8e:03:ef:
                    b7:11:f7:92:4c:c3:0c:2d:d4:9d:0f:0a:0b:5c:0d:
                    48:c2:e2:96:11:cb:5d:41:6a:83:a8:5c:fd:54:73:
                    32:8c:18:ab:81:a2:60:c5:16:8e:ba:29:24:ec:72:
                    92:49:68:f0:b1:89:b9:a6:11:d9:bc:e5:a6:6f:96:
                    e6:0a:c5:09:ce:e4:b4:83:83:bc:2c:b2:ef:0f:d7:
                    6a:5c:eb:55:9d:90:6d:dd:a0:72:b1:40:79:5a:33:
                    2a:a9:8b:5f:66:2b:e2:64:e0:ac:ba:19:c5:af:19:
                    74:b9:6b:38:89:f8:ad:2b:4e:37:b5:73:c7:8b:63:
                    6f:8a:58:55:a0:24:fc:90:ff:0b:cd:83:21:2b:ce:
                    16:e9:94:bd:5d:4f:e9:95:3e:c9:e2:cb:96:1b:27:
                    7e:8b:cc:6b:12:78:2e:b9:cb:3d:91:3e:6d:2f:1a:
                    62:d3:11:81:60:f1:dc:3f:96:8d:65:3b:b0:ba:8c:
                    00:2c:65:45:6b:8b:2c:16:45:d6:7f:2c:0d:4e:a6:
                    48:b9:a0:60:9e:8c:aa:cc:6e:92:67:ed:37:7e:b9:
                    93:e2:a6:00:47:6d:cc:3b:39:5d:59:76:bf:e6:1f:
                    47:57:7d:33:b6:1f:c5:b8:66:d0:80:ac:f9:be:f4:
                    2f:3f
                Exponent: 65537 (0x10001)
        X509v3 extensions:
            X509v3 Basic Constraints: 
                CA:FALSE
            X509v3 Subject Key Identifier: 
                4E:FF:F3:DF:55:C3:1B:54:02:B7:1C:09:62:6F:DD:E8:07:01:7A:0D
            X509v3 Authority Key Identifier: 
                keyid:FF:1F:1F:0E:F4:6E:BB:36:63:FF:5E:9A:F1:3B:D6:4F:78:0D:A1:80
                DirName:/CN=boyson
                serial:07:CD:EA:4E:7F:98:34:2C:F6:34:76:E0:5C:91:D7:70:FC:23:97:B7

            X509v3 Extended Key Usage: 
                TLS Web Client Authentication
            X509v3 Key Usage: 
                Digital Signature
    Signature Algorithm: sha256WithRSAEncryption
         62:3c:ad:7f:f2:a2:09:b7:98:09:74:30:c4:eb:a1:de:c4:98:
         1e:17:7d:2a:6f:bd:8e:ef:c8:37:1d:b5:66:04:03:9c:e7:01:
         77:da:96:7e:c1:2e:56:8d:62:23:be:74:63:8f:b5:d0:f5:f9:
         94:6b:ed:3c:d2:46:a1:ff:df:a5:70:10:e4:bc:dc:5e:b6:1b:
         a4:95:bf:df:49:e9:97:99:17:fa:f3:d0:f4:65:e0:da:a0:05:
         ec:cb:24:7f:f9:81:9b:33:eb:ea:67:ff:73:5f:c1:fa:e4:cb:
         84:a6:e7:9b:8a:4d:f6:88:a3:bf:80:fb:7c:b8:26:09:b8:bb:
         97:74:4e:1b:37:ea:bc:19:6c:b6:c2:9a:5e:66:ca:27:ca:fa:
         6f:04:a5:e0:18:52:a6:3b:a9:24:54:db:49:71:cd:60:92:cf:
         8c:b7:f5:17:2c:45:dc:c5:8d:10:1a:b5:40:58:81:a8:38:c6:
         ab:d7:7e:11:07:1f:82:ea:1e:5f:e7:aa:8b:5f:7d:ea:19:d7:
         7f:0e:5d:1c:83:5d:cf:23:43:fa:d2:7a:60:ab:5f:ba:e0:9f:
         38:a5:82:9c:3d:2c:73:92:c8:8b:fe:d3:68:73:e2:e3:18:9a:
         03:65:9e:01:fb:61:d8:85:b2:06:27:ff:d5:9a:a8:fb:51:c0:
         cb:03:92:cb
-----BEGIN CERTIFICATE-----
MIIDWjCCAkKgAwIBAgIRALlQxAVLER556cv22bSD+7wwDQYJKoZIhvcNAQELBQAw
ETEPMA0GA1UEAwwGYm95c29uMB4XDTIzMDIyNDA5NTAyN1oXDTI1MDUyOTA5NTAy
N1owIDEeMBwGA1UEAwwVcG9uZ3NhdG9ybl9zYXdhbmdrbGFvMIIBIjANBgkqhkiG
9w0BAQEFAAOCAQ8AMIIBCgKCAQEA3GxkJA3je8pZU4+OA++3EfeSTMMMLdSdDwoL
XA1IwuKWEctdQWqDqFz9VHMyjBirgaJgxRaOuikk7HKSSWjwsYm5phHZvOWmb5bm
CsUJzuS0g4O8LLLvD9dqXOtVnZBt3aBysUB5WjMqqYtfZiviZOCsuhnFrxl0uWs4
ifitK043tXPHi2NvilhVoCT8kP8LzYMhK84W6ZS9XU/plT7J4suWGyd+i8xrEngu
ucs9kT5tLxpi0xGBYPHcP5aNZTuwuowALGVFa4ssFkXWfywNTqZIuaBgnoyqzG6S
Z+03frmT4qYAR23MOzldWXa/5h9HV30zth/FuGbQgKz5vvQvPwIDAQABo4GdMIGa
MAkGA1UdEwQCMAAwHQYDVR0OBBYEFE7/899VwxtUArccCWJv3egHAXoNMEwGA1Ud
IwRFMEOAFP8fHw70brs2Y/9emvE71k94DaGAoRWkEzARMQ8wDQYDVQQDDAZib3lz
b26CFAfN6k5/mDQs9jR24FyR13D8I5e3MBMGA1UdJQQMMAoGCCsGAQUFBwMCMAsG
A1UdDwQEAwIHgDANBgkqhkiG9w0BAQsFAAOCAQEAYjytf/KiCbeYCXQwxOuh3sSY
Hhd9Km+9ju/INx21ZgQDnOcBd9qWfsEuVo1iI750Y4+10PX5lGvtPNJGof/fpXAQ
5LzcXrYbpJW/30npl5kX+vPQ9GXg2qAF7Mskf/mBmzPr6mf/c1/B+uTLhKbnm4pN
9oijv4D7fLgmCbi7l3ROGzfqvBlstsKaXmbKJ8r6bwSl4BhSpjupJFTbSXHNYJLP
jLf1FyxF3MWNEBq1QFiBqDjGq9d+EQcfguoeX+eqi1996hnXfw5dHINdzyND+tJ6
YKtfuuCfOKWCnD0sc5LIi/7TaHPi4xiaA2WeAfth2IWyBif/1Zqo+1HAywOSyw==
-----END CERTIFICATE-----
