Certificate:
    Data:
        Version: 3 (0x2)
        Serial Number:
            bd:24:3c:a0:c3:21:5e:d5:2c:4a:04:d2:5a:af:f3:6c
        Signature Algorithm: sha256WithRSAEncryption
        Issuer: CN=boyson
        Validity
            Not Before: Feb 19 17:16:09 2023 GMT
            Not After : May 24 17:16:09 2025 GMT
        Subject: CN=pongsatorn_sawangklao
        Subject Public Key Info:
            Public Key Algorithm: rsaEncryption
                RSA Public-Key: (2048 bit)
                Modulus:
                    00:cd:b1:4c:0f:b9:3f:f4:b7:e3:5f:88:75:9b:f3:
                    7f:36:69:ec:2c:a5:65:18:e5:50:19:24:01:d6:df:
                    af:f8:e4:d0:ef:35:0f:c3:90:cd:f9:87:6c:59:33:
                    1c:5c:db:78:54:8a:ea:fd:40:aa:83:91:82:f4:e3:
                    c5:b4:68:d6:4c:33:ea:c7:5a:7f:71:16:74:26:34:
                    de:b0:78:d7:83:67:24:53:d9:79:d5:23:ed:30:8e:
                    d1:84:fe:08:aa:f7:f8:9b:24:e8:b1:ee:f0:8d:ef:
                    3c:19:d4:ae:1b:45:66:80:94:00:1f:5d:10:79:5a:
                    cf:8b:f6:a2:68:b7:49:c8:99:a3:a8:e4:b7:b6:99:
                    cc:04:8c:e4:8e:01:02:b5:c5:75:9b:2c:ef:ff:33:
                    d9:69:72:31:1d:a6:99:8f:f7:07:32:d1:a8:2b:9c:
                    df:52:2f:cd:27:3e:3f:3e:7e:dc:ef:b7:12:db:04:
                    f7:1a:c1:30:68:24:a1:0c:f4:87:d4:38:e6:d7:34:
                    da:df:5b:6a:e9:93:08:4f:09:db:09:63:df:e0:ea:
                    8c:02:66:4c:15:60:68:78:62:2f:56:16:8b:41:19:
                    bc:f3:ed:12:2d:6e:0e:a3:9f:17:d3:15:85:f1:47:
                    ab:93:f0:f6:27:14:02:2d:b3:98:09:e9:c1:18:be:
                    52:15
                Exponent: 65537 (0x10001)
        X509v3 extensions:
            X509v3 Basic Constraints: 
                CA:FALSE
            X509v3 Subject Key Identifier: 
                EF:F2:6F:9F:F9:54:04:EB:FE:EA:C2:94:0A:A8:40:C4:14:06:18:98
            X509v3 Authority Key Identifier: 
                keyid:FF:1F:1F:0E:F4:6E:BB:36:63:FF:5E:9A:F1:3B:D6:4F:78:0D:A1:80
                DirName:/CN=boyson
                serial:07:CD:EA:4E:7F:98:34:2C:F6:34:76:E0:5C:91:D7:70:FC:23:97:B7

            X509v3 Extended Key Usage: 
                TLS Web Client Authentication
            X509v3 Key Usage: 
                Digital Signature
    Signature Algorithm: sha256WithRSAEncryption
         96:fd:0d:03:5e:92:2a:b2:02:bf:90:38:97:65:01:7e:35:4c:
         bf:b0:4f:48:69:98:1c:61:2d:a6:da:4d:8b:81:7e:61:25:85:
         00:d2:80:1e:4a:04:d5:e2:fe:c5:15:1d:93:d9:49:86:0f:ac:
         94:30:19:3c:cb:42:f8:18:e5:dd:01:65:19:32:d6:95:8f:89:
         3a:ed:ba:18:1a:49:b1:05:7c:e6:f7:05:d6:9b:c1:ce:5d:57:
         dc:2e:38:b8:0c:5d:28:22:49:76:9a:99:58:de:d1:f7:56:55:
         d2:8d:9e:cb:43:92:cf:6e:e7:0f:c4:18:6f:f3:a9:f6:db:88:
         66:ba:d9:20:6b:97:61:ab:13:d8:7e:6b:28:97:84:44:a2:f7:
         cc:8f:3d:c2:e7:15:23:d9:fe:03:58:c3:ac:cc:40:88:db:a5:
         f1:cc:dd:0f:5a:14:e9:ea:c4:f0:21:10:b6:83:79:d6:18:13:
         35:d1:64:89:31:b2:19:cf:99:ef:57:39:e6:ca:04:3e:61:8b:
         e6:42:d5:e7:32:36:ce:0a:57:59:80:27:b7:88:7a:bf:a9:fa:
         5f:5b:23:c0:06:8b:0c:b1:16:83:20:59:d8:48:ad:00:17:9a:
         f0:da:23:18:6c:5e:d9:a2:ef:c4:24:f9:6f:95:72:e8:e4:b5:
         11:31:e2:be
-----BEGIN CERTIFICATE-----
MIIDWjCCAkKgAwIBAgIRAL0kPKDDIV7VLEoE0lqv82wwDQYJKoZIhvcNAQELBQAw
ETEPMA0GA1UEAwwGYm95c29uMB4XDTIzMDIxOTE3MTYwOVoXDTI1MDUyNDE3MTYw
OVowIDEeMBwGA1UEAwwVcG9uZ3NhdG9ybl9zYXdhbmdrbGFvMIIBIjANBgkqhkiG
9w0BAQEFAAOCAQ8AMIIBCgKCAQEAzbFMD7k/9LfjX4h1m/N/NmnsLKVlGOVQGSQB
1t+v+OTQ7zUPw5DN+YdsWTMcXNt4VIrq/UCqg5GC9OPFtGjWTDPqx1p/cRZ0JjTe
sHjXg2ckU9l51SPtMI7RhP4Iqvf4myTose7wje88GdSuG0VmgJQAH10QeVrPi/ai
aLdJyJmjqOS3tpnMBIzkjgECtcV1myzv/zPZaXIxHaaZj/cHMtGoK5zfUi/NJz4/
Pn7c77cS2wT3GsEwaCShDPSH1Djm1zTa31tq6ZMITwnbCWPf4OqMAmZMFWBoeGIv
VhaLQRm88+0SLW4Oo58X0xWF8Uerk/D2JxQCLbOYCenBGL5SFQIDAQABo4GdMIGa
MAkGA1UdEwQCMAAwHQYDVR0OBBYEFO/yb5/5VATr/urClAqoQMQUBhiYMEwGA1Ud
IwRFMEOAFP8fHw70brs2Y/9emvE71k94DaGAoRWkEzARMQ8wDQYDVQQDDAZib3lz
b26CFAfN6k5/mDQs9jR24FyR13D8I5e3MBMGA1UdJQQMMAoGCCsGAQUFBwMCMAsG
A1UdDwQEAwIHgDANBgkqhkiG9w0BAQsFAAOCAQEAlv0NA16SKrICv5A4l2UBfjVM
v7BPSGmYHGEtptpNi4F+YSWFANKAHkoE1eL+xRUdk9lJhg+slDAZPMtC+Bjl3QFl
GTLWlY+JOu26GBpJsQV85vcF1pvBzl1X3C44uAxdKCJJdpqZWN7R91ZV0o2ey0OS
z27nD8QYb/Op9tuIZrrZIGuXYasT2H5rKJeERKL3zI89wucVI9n+A1jDrMxAiNul
8czdD1oU6erE8CEQtoN51hgTNdFkiTGyGc+Z71c55soEPmGL5kLV5zI2zgpXWYAn
t4h6v6n6X1sjwAaLDLEWgyBZ2EitABea8NojGGxe2aLvxCT5b5Vy6OS1ETHivg==
-----END CERTIFICATE-----
