Certificate:
    Data:
        Version: 3 (0x2)
        Serial Number:
            c3:fa:66:9e:33:3b:c3:f5:49:20:f5:67:2a:35:48:ce
        Signature Algorithm: sha256WithRSAEncryption
        Issuer: CN=boyson
        Validity
            Not Before: Feb 23 09:57:15 2023 GMT
            Not After : May 28 09:57:15 2025 GMT
        Subject: CN=pongsatorn_sawangklao
        Subject Public Key Info:
            Public Key Algorithm: rsaEncryption
                RSA Public-Key: (2048 bit)
                Modulus:
                    00:c5:bb:a5:88:0d:d7:e3:65:c1:0e:2d:f4:ef:07:
                    8b:4c:38:08:f7:00:aa:00:d6:94:12:ec:7a:4e:e2:
                    ee:d3:f4:b3:a2:71:40:bf:c5:16:cc:35:8d:e7:68:
                    7d:fa:03:b4:e4:c2:80:16:59:f1:22:91:10:7a:29:
                    e6:e0:3f:5f:41:d9:c6:3c:95:dc:68:46:a0:74:63:
                    ed:3f:f3:60:7a:3f:2b:12:17:aa:87:78:67:6d:b3:
                    d8:ea:39:68:1b:67:32:bf:f5:0f:07:64:1e:fb:34:
                    79:12:67:10:42:49:19:75:13:4a:e1:c7:f2:f1:f2:
                    2a:b9:f4:73:ae:39:90:e8:c7:28:08:35:cc:11:43:
                    9c:1b:cc:84:3a:fa:55:95:04:81:7c:83:84:fa:99:
                    00:be:fb:58:6e:8c:1d:f3:2d:7d:d7:ff:dc:e4:96:
                    e1:a8:bd:ee:69:4d:92:17:b6:ac:a6:4d:8e:fc:2a:
                    59:00:0a:33:61:ac:01:4b:ad:43:7f:79:38:27:cb:
                    cf:cd:39:39:58:72:1c:19:67:59:0a:07:ef:0c:cb:
                    ae:0f:90:7b:ea:da:f3:55:cf:71:1c:c5:9b:a7:d0:
                    ea:7f:4f:36:43:5f:e4:39:2c:4b:d5:78:2d:5d:12:
                    9e:74:97:94:40:f3:bd:01:d4:52:c4:96:1a:d0:7d:
                    ef:bb
                Exponent: 65537 (0x10001)
        X509v3 extensions:
            X509v3 Basic Constraints: 
                CA:FALSE
            X509v3 Subject Key Identifier: 
                03:E9:B6:D0:8E:4A:6F:CF:94:C5:98:78:A8:46:C1:E8:22:1F:89:93
            X509v3 Authority Key Identifier: 
                keyid:FF:1F:1F:0E:F4:6E:BB:36:63:FF:5E:9A:F1:3B:D6:4F:78:0D:A1:80
                DirName:/CN=boyson
                serial:07:CD:EA:4E:7F:98:34:2C:F6:34:76:E0:5C:91:D7:70:FC:23:97:B7

            X509v3 Extended Key Usage: 
                TLS Web Client Authentication
            X509v3 Key Usage: 
                Digital Signature
    Signature Algorithm: sha256WithRSAEncryption
         16:3c:44:24:c9:36:e5:b9:f7:f1:0b:97:0a:b7:e5:d4:df:4a:
         65:5a:8c:4b:af:8b:d4:78:5e:a4:af:c2:5f:9b:4c:7a:25:b4:
         05:1b:d5:30:0a:7d:10:7d:58:86:1d:40:be:94:d5:2a:d8:93:
         95:88:f3:ec:81:cc:64:25:59:02:53:df:58:71:0b:db:08:77:
         33:65:62:1d:ec:4e:db:af:fa:8a:70:cb:1b:e0:5c:8b:60:04:
         c9:27:bd:34:93:bb:9c:f1:c3:78:78:65:b4:fc:11:6c:df:20:
         b2:66:c5:39:90:d1:d8:d9:d2:7d:ff:e7:5d:07:f3:05:94:f2:
         c5:1f:a1:2c:1c:73:e8:50:25:ed:69:9b:55:d3:19:d5:c2:b5:
         13:fa:c9:89:0d:81:41:62:b9:fd:59:34:a3:2d:a0:08:36:5b:
         c2:63:b0:6c:f6:86:fd:82:9a:d4:9f:85:03:1f:c6:60:ca:11:
         bc:2b:5e:c4:0a:e4:40:c6:2f:80:cd:53:66:f7:db:9f:6c:74:
         45:e1:7a:e1:20:d8:ee:fd:b2:04:fc:cf:6f:00:bc:e8:e5:f1:
         a9:2e:46:f7:16:13:d0:30:c2:ee:22:fe:19:a8:7a:4e:db:2b:
         6a:e6:4b:4d:ca:0f:3d:df:3b:ef:21:4e:21:28:f2:94:75:03:
         fc:8a:a7:61
-----BEGIN CERTIFICATE-----
MIIDWjCCAkKgAwIBAgIRAMP6Zp4zO8P1SSD1Zyo1SM4wDQYJKoZIhvcNAQELBQAw
ETEPMA0GA1UEAwwGYm95c29uMB4XDTIzMDIyMzA5NTcxNVoXDTI1MDUyODA5NTcx
NVowIDEeMBwGA1UEAwwVcG9uZ3NhdG9ybl9zYXdhbmdrbGFvMIIBIjANBgkqhkiG
9w0BAQEFAAOCAQ8AMIIBCgKCAQEAxbuliA3X42XBDi307weLTDgI9wCqANaUEux6
TuLu0/SzonFAv8UWzDWN52h9+gO05MKAFlnxIpEQeinm4D9fQdnGPJXcaEagdGPt
P/Ngej8rEheqh3hnbbPY6jloG2cyv/UPB2Qe+zR5EmcQQkkZdRNK4cfy8fIqufRz
rjmQ6McoCDXMEUOcG8yEOvpVlQSBfIOE+pkAvvtYbowd8y191//c5JbhqL3uaU2S
F7aspk2O/CpZAAozYawBS61Df3k4J8vPzTk5WHIcGWdZCgfvDMuuD5B76trzVc9x
HMWbp9Dqf082Q1/kOSxL1XgtXRKedJeUQPO9AdRSxJYa0H3vuwIDAQABo4GdMIGa
MAkGA1UdEwQCMAAwHQYDVR0OBBYEFAPpttCOSm/PlMWYeKhGwegiH4mTMEwGA1Ud
IwRFMEOAFP8fHw70brs2Y/9emvE71k94DaGAoRWkEzARMQ8wDQYDVQQDDAZib3lz
b26CFAfN6k5/mDQs9jR24FyR13D8I5e3MBMGA1UdJQQMMAoGCCsGAQUFBwMCMAsG
A1UdDwQEAwIHgDANBgkqhkiG9w0BAQsFAAOCAQEAFjxEJMk25bn38QuXCrfl1N9K
ZVqMS6+L1HhepK/CX5tMeiW0BRvVMAp9EH1Yhh1AvpTVKtiTlYjz7IHMZCVZAlPf
WHEL2wh3M2ViHexO26/6inDLG+Bci2AEySe9NJO7nPHDeHhltPwRbN8gsmbFOZDR
2NnSff/nXQfzBZTyxR+hLBxz6FAl7WmbVdMZ1cK1E/rJiQ2BQWK5/Vk0oy2gCDZb
wmOwbPaG/YKa1J+FAx/GYMoRvCtexArkQMYvgM1TZvfbn2x0ReF64SDY7v2yBPzP
bwC86OXxqS5G9xYT0DDC7iL+Gah6TtsrauZLTcoPPd877yFOISjylHUD/IqnYQ==
-----END CERTIFICATE-----
