Certificate:
    Data:
        Version: 3 (0x2)
        Serial Number:
            cd:42:91:74:3a:c5:24:dc:e8:95:ed:45:f6:8b:dc:9d
        Signature Algorithm: sha256WithRSAEncryption
        Issuer: CN=boyson
        Validity
            Not Before: Feb 27 06:10:30 2023 GMT
            Not After : Jun  1 06:10:30 2025 GMT
        Subject: CN=pongsatorn_sawangklao
        Subject Public Key Info:
            Public Key Algorithm: rsaEncryption
                RSA Public-Key: (2048 bit)
                Modulus:
                    00:dc:16:60:21:8b:ef:a7:3c:1c:59:ce:a8:aa:08:
                    1b:fd:e0:a4:0a:9a:5b:6d:66:6d:c7:a4:d5:6c:6f:
                    d6:25:6e:7c:73:d5:f7:cf:0a:cd:db:84:74:f4:f1:
                    98:36:04:ac:11:02:11:08:1d:2f:45:4b:43:e7:c7:
                    e5:fc:1d:64:5c:30:c5:67:b6:2c:99:f5:2d:8a:9d:
                    2e:a1:f3:07:56:45:13:65:d5:96:21:b0:a5:4f:5b:
                    a0:3f:8a:b1:08:44:83:59:53:3e:8c:43:ab:cd:1d:
                    97:a7:23:03:f5:04:e0:25:31:f0:e2:bf:6f:f4:4c:
                    ab:5b:39:cf:69:b1:0d:4a:31:53:80:5b:5c:f0:aa:
                    d6:b2:50:41:6d:a5:4e:60:e8:b4:6c:50:38:57:ed:
                    ec:bf:22:d5:f5:3d:b3:8f:64:a7:a6:a2:12:ba:f0:
                    42:5a:26:0f:64:14:35:87:9b:a2:ce:f8:3a:e0:a7:
                    7b:92:36:60:ea:6e:e5:8d:1e:47:f1:c2:ca:41:09:
                    c7:72:f9:f5:cd:a5:32:df:1c:4e:76:c0:be:b7:01:
                    f0:19:65:d3:a3:bf:fb:11:f2:ad:05:b7:3a:7f:0b:
                    9d:fd:5f:ca:16:9f:c2:b0:07:28:06:12:85:37:b5:
                    54:9d:ab:85:e8:72:6f:81:ce:e2:67:38:56:70:9e:
                    59:a7
                Exponent: 65537 (0x10001)
        X509v3 extensions:
            X509v3 Basic Constraints: 
                CA:FALSE
            X509v3 Subject Key Identifier: 
                53:B2:59:B6:5B:15:76:C4:71:20:65:C1:31:A3:ED:8A:15:74:1F:67
            X509v3 Authority Key Identifier: 
                keyid:FF:1F:1F:0E:F4:6E:BB:36:63:FF:5E:9A:F1:3B:D6:4F:78:0D:A1:80
                DirName:/CN=boyson
                serial:07:CD:EA:4E:7F:98:34:2C:F6:34:76:E0:5C:91:D7:70:FC:23:97:B7

            X509v3 Extended Key Usage: 
                TLS Web Client Authentication
            X509v3 Key Usage: 
                Digital Signature
    Signature Algorithm: sha256WithRSAEncryption
         2a:33:8f:e3:53:ef:29:b8:df:55:c8:8d:0a:a7:39:a7:5a:3b:
         e4:55:ca:5f:4a:59:42:ff:c6:52:49:91:9c:d6:c0:64:3e:e7:
         29:c5:c6:20:8d:9f:15:92:35:58:2e:38:e3:11:c9:4f:35:44:
         4e:52:6c:25:20:69:b5:e4:02:fc:32:be:60:c4:eb:d7:b1:7b:
         06:96:14:c7:7c:e2:94:f8:ba:7a:de:8a:6c:c6:f4:d0:1e:c9:
         33:e4:69:2d:9c:03:dc:86:2c:f1:e7:c5:db:52:11:fb:34:39:
         b9:ab:98:0e:7b:79:58:1f:b6:88:8e:8b:af:4f:78:5a:65:b0:
         7f:c3:cf:2f:47:1e:8a:f1:c5:ee:b8:f5:b9:13:ce:b3:ff:cf:
         ce:bf:e4:01:b4:cb:7f:d2:29:1c:90:ae:e6:61:a1:2d:7f:fa:
         ed:c5:1c:f1:78:cc:08:8b:88:50:bf:1d:cc:7d:e6:34:16:49:
         3c:de:86:1f:90:67:41:97:54:b1:08:52:9b:ca:ee:ce:9b:6f:
         09:1f:3f:5c:2a:5e:52:95:83:14:2b:45:01:56:03:1d:92:a6:
         9d:67:d8:00:8a:27:38:f9:b1:e6:16:bc:25:46:37:0e:42:07:
         cb:46:92:1c:0b:b5:a0:70:0d:ff:17:68:cd:6f:5b:e8:e4:f7:
         36:e9:85:07
-----BEGIN CERTIFICATE-----
MIIDWjCCAkKgAwIBAgIRAM1CkXQ6xSTc6JXtRfaL3J0wDQYJKoZIhvcNAQELBQAw
ETEPMA0GA1UEAwwGYm95c29uMB4XDTIzMDIyNzA2MTAzMFoXDTI1MDYwMTA2MTAz
MFowIDEeMBwGA1UEAwwVcG9uZ3NhdG9ybl9zYXdhbmdrbGFvMIIBIjANBgkqhkiG
9w0BAQEFAAOCAQ8AMIIBCgKCAQEA3BZgIYvvpzwcWc6oqggb/eCkCppbbWZtx6TV
bG/WJW58c9X3zwrN24R09PGYNgSsEQIRCB0vRUtD58fl/B1kXDDFZ7YsmfUtip0u
ofMHVkUTZdWWIbClT1ugP4qxCESDWVM+jEOrzR2XpyMD9QTgJTHw4r9v9EyrWznP
abENSjFTgFtc8KrWslBBbaVOYOi0bFA4V+3svyLV9T2zj2SnpqISuvBCWiYPZBQ1
h5uizvg64Kd7kjZg6m7ljR5H8cLKQQnHcvn1zaUy3xxOdsC+twHwGWXTo7/7EfKt
Bbc6fwud/V/KFp/CsAcoBhKFN7VUnauF6HJvgc7iZzhWcJ5ZpwIDAQABo4GdMIGa
MAkGA1UdEwQCMAAwHQYDVR0OBBYEFFOyWbZbFXbEcSBlwTGj7YoVdB9nMEwGA1Ud
IwRFMEOAFP8fHw70brs2Y/9emvE71k94DaGAoRWkEzARMQ8wDQYDVQQDDAZib3lz
b26CFAfN6k5/mDQs9jR24FyR13D8I5e3MBMGA1UdJQQMMAoGCCsGAQUFBwMCMAsG
A1UdDwQEAwIHgDANBgkqhkiG9w0BAQsFAAOCAQEAKjOP41PvKbjfVciNCqc5p1o7
5FXKX0pZQv/GUkmRnNbAZD7nKcXGII2fFZI1WC444xHJTzVETlJsJSBpteQC/DK+
YMTr17F7BpYUx3zilPi6et6KbMb00B7JM+RpLZwD3IYs8efF21IR+zQ5uauYDnt5
WB+2iI6Lr094WmWwf8PPL0ceivHF7rj1uRPOs//Pzr/kAbTLf9IpHJCu5mGhLX/6
7cUc8XjMCIuIUL8dzH3mNBZJPN6GH5BnQZdUsQhSm8ruzptvCR8/XCpeUpWDFCtF
AVYDHZKmnWfYAIonOPmx5ha8JUY3DkIHy0aSHAu1oHAN/xdozW9b6OT3NumFBw==
-----END CERTIFICATE-----
