Certificate:
    Data:
        Version: 3 (0x2)
        Serial Number:
            d1:c4:12:48:92:17:cd:b7:54:e8:22:bd:1b:c2:62:b8
        Signature Algorithm: sha256WithRSAEncryption
        Issuer: CN=boyson
        Validity
            Not Before: Feb 21 06:20:58 2023 GMT
            Not After : May 26 06:20:58 2025 GMT
        Subject: CN=Pongsatorn_SAWANGKLAO
        Subject Public Key Info:
            Public Key Algorithm: rsaEncryption
                RSA Public-Key: (2048 bit)
                Modulus:
                    00:b7:5f:5a:1f:6c:48:1c:1a:b1:52:51:7a:6c:e6:
                    80:aa:1b:b4:61:3a:dd:c3:a3:97:00:ac:50:cf:43:
                    b8:f2:39:aa:f5:3f:f8:19:27:8a:d4:80:2b:66:34:
                    46:e9:5a:3b:8a:01:78:b7:5c:58:81:8f:d6:95:c5:
                    50:59:b6:08:56:30:1d:43:27:81:cf:aa:a6:7c:13:
                    a2:ae:1a:14:9c:9f:72:93:be:a8:3d:c6:31:a1:aa:
                    1f:0d:7f:69:4a:7c:f8:5c:3d:34:e2:eb:30:c8:42:
                    81:3f:1b:a7:c6:6a:cf:15:ab:d4:9d:a9:f2:cb:b1:
                    c9:f2:25:ad:ef:0f:8c:2d:dc:f3:4a:7c:44:64:d0:
                    27:33:fd:03:62:98:c1:68:fd:4f:37:b2:0a:23:f4:
                    a5:57:35:ba:0f:49:02:6b:d0:cb:82:d0:b6:69:b1:
                    b5:9e:f4:f7:b0:c0:75:fd:df:4c:3a:59:05:9b:f0:
                    da:24:67:05:ae:c0:29:e2:ed:bc:6f:af:03:4d:49:
                    f3:d2:29:da:df:fb:07:e2:d1:47:e7:13:0a:7d:d1:
                    a1:4d:cf:a1:f6:f9:a1:b1:d7:3e:90:a5:28:80:9c:
                    ed:64:7c:f7:08:61:e3:8d:0f:f9:22:ad:36:f8:24:
                    67:c3:b4:2e:5f:20:7a:8f:08:b5:76:ab:b8:19:84:
                    ae:35
                Exponent: 65537 (0x10001)
        X509v3 extensions:
            X509v3 Basic Constraints: 
                CA:FALSE
            X509v3 Subject Key Identifier: 
                12:D3:90:30:82:54:E9:C6:57:69:61:DC:FE:58:50:70:25:74:87:1D
            X509v3 Authority Key Identifier: 
                keyid:FF:1F:1F:0E:F4:6E:BB:36:63:FF:5E:9A:F1:3B:D6:4F:78:0D:A1:80
                DirName:/CN=boyson
                serial:07:CD:EA:4E:7F:98:34:2C:F6:34:76:E0:5C:91:D7:70:FC:23:97:B7

            X509v3 Extended Key Usage: 
                TLS Web Client Authentication
            X509v3 Key Usage: 
                Digital Signature
    Signature Algorithm: sha256WithRSAEncryption
         7c:d1:db:78:62:c9:5e:0a:ce:45:81:d1:98:83:3b:7b:28:3e:
         67:8c:3e:df:00:1e:55:d3:2e:c5:9d:96:a5:41:da:31:be:26:
         0f:95:9e:e3:78:63:2d:8e:bb:62:a8:87:23:34:3d:1e:d5:bd:
         eb:a0:52:27:68:49:59:91:bf:8d:e2:fe:d4:b1:1f:7d:52:b6:
         31:c7:fe:3e:e8:a0:40:07:e0:f2:08:84:e8:7c:6c:4b:6b:a9:
         24:63:db:c9:26:aa:19:6d:04:97:6f:ab:d0:c4:2b:25:b7:f1:
         0d:5e:7b:25:00:be:f0:ee:d4:f6:98:27:4c:ba:32:0d:51:bc:
         09:67:6b:ab:ac:13:e0:4c:9b:d5:55:e3:88:1e:04:1c:8a:0a:
         34:b4:3e:50:0e:06:ba:da:2e:b6:51:93:2b:31:1b:8c:bd:a4:
         a1:b3:15:ac:03:79:98:95:82:a1:e7:85:6a:11:11:70:cc:29:
         b6:2b:ce:9a:25:2d:3f:91:df:32:d9:75:f4:6a:bc:5e:5b:ad:
         cc:2c:10:2d:af:2e:25:e5:80:ec:a3:9d:25:3c:63:ea:9b:cb:
         3a:ae:0d:43:a0:16:18:07:1f:f6:5b:cf:70:d9:4e:c0:00:34:
         ac:28:3d:82:30:54:dd:f6:8c:7b:69:43:14:71:4a:13:30:6e:
         f9:a6:88:13
-----BEGIN CERTIFICATE-----
MIIDWjCCAkKgAwIBAgIRANHEEkiSF823VOgivRvCYrgwDQYJKoZIhvcNAQELBQAw
ETEPMA0GA1UEAwwGYm95c29uMB4XDTIzMDIyMTA2MjA1OFoXDTI1MDUyNjA2MjA1
OFowIDEeMBwGA1UEAwwVUG9uZ3NhdG9ybl9TQVdBTkdLTEFPMIIBIjANBgkqhkiG
9w0BAQEFAAOCAQ8AMIIBCgKCAQEAt19aH2xIHBqxUlF6bOaAqhu0YTrdw6OXAKxQ
z0O48jmq9T/4GSeK1IArZjRG6Vo7igF4t1xYgY/WlcVQWbYIVjAdQyeBz6qmfBOi
rhoUnJ9yk76oPcYxoaofDX9pSnz4XD004uswyEKBPxunxmrPFavUnanyy7HJ8iWt
7w+MLdzzSnxEZNAnM/0DYpjBaP1PN7IKI/SlVzW6D0kCa9DLgtC2abG1nvT3sMB1
/d9MOlkFm/DaJGcFrsAp4u28b68DTUnz0ina3/sH4tFH5xMKfdGhTc+h9vmhsdc+
kKUogJztZHz3CGHjjQ/5Iq02+CRnw7QuXyB6jwi1dqu4GYSuNQIDAQABo4GdMIGa
MAkGA1UdEwQCMAAwHQYDVR0OBBYEFBLTkDCCVOnGV2lh3P5YUHAldIcdMEwGA1Ud
IwRFMEOAFP8fHw70brs2Y/9emvE71k94DaGAoRWkEzARMQ8wDQYDVQQDDAZib3lz
b26CFAfN6k5/mDQs9jR24FyR13D8I5e3MBMGA1UdJQQMMAoGCCsGAQUFBwMCMAsG
A1UdDwQEAwIHgDANBgkqhkiG9w0BAQsFAAOCAQEAfNHbeGLJXgrORYHRmIM7eyg+
Z4w+3wAeVdMuxZ2WpUHaMb4mD5We43hjLY67YqiHIzQ9HtW966BSJ2hJWZG/jeL+
1LEffVK2Mcf+PuigQAfg8giE6HxsS2upJGPbySaqGW0El2+r0MQrJbfxDV57JQC+
8O7U9pgnTLoyDVG8CWdrq6wT4Eyb1VXjiB4EHIoKNLQ+UA4GutoutlGTKzEbjL2k
obMVrAN5mJWCoeeFahERcMwptivOmiUtP5HfMtl19Gq8XlutzCwQLa8uJeWA7KOd
JTxj6pvLOq4NQ6AWGAcf9lvPcNlOwAA0rCg9gjBU3faMe2lDFHFKEzBu+aaIEw==
-----END CERTIFICATE-----
