Certificate:
    Data:
        Version: 3 (0x2)
        Serial Number:
            dc:6c:ce:bc:09:f2:59:d0:a0:d7:70:94:3f:90:33:e1
        Signature Algorithm: sha256WithRSAEncryption
        Issuer: CN=boyson
        Validity
            Not Before: Feb 22 09:58:10 2023 GMT
            Not After : May 27 09:58:10 2025 GMT
        Subject: CN=Pongsatorn_SAWANGKLAO
        Subject Public Key Info:
            Public Key Algorithm: rsaEncryption
                RSA Public-Key: (2048 bit)
                Modulus:
                    00:d5:33:bd:6d:b0:bd:5f:9e:d1:f8:8f:43:54:2e:
                    40:b9:6b:0a:4d:e1:60:24:40:09:a3:8f:4f:7b:c0:
                    39:27:82:20:8b:a5:3b:3b:4d:8d:f0:a0:e2:a2:e1:
                    1d:98:90:f5:4d:59:7f:29:bb:d7:60:89:31:a2:6e:
                    e7:3c:6d:c9:30:5f:07:21:b1:46:62:12:b0:9f:39:
                    ce:d9:f1:a4:3c:d3:fb:d2:4b:b6:4b:d2:63:46:40:
                    44:ff:a2:45:b1:6e:7d:33:fd:c8:80:51:67:b6:0b:
                    a4:8a:fe:a3:b4:bc:9a:e7:c9:55:f7:15:9e:e8:f3:
                    65:88:64:c6:ae:7e:b6:9f:ac:c4:e3:0d:57:0c:b9:
                    d9:e9:fa:88:8d:2d:c0:34:71:b7:a4:80:28:52:de:
                    d2:54:34:37:24:2b:b2:11:20:12:c7:4b:19:9a:a5:
                    39:c9:49:17:bf:64:ef:43:26:81:fe:1d:1c:b2:ab:
                    0f:b7:de:ee:27:40:64:7d:fa:43:e2:fd:fb:99:0d:
                    fa:65:32:79:7f:ad:44:94:50:22:0f:af:ef:e4:f0:
                    97:3d:d2:b8:b2:93:a9:3c:f9:8a:f2:b1:e4:0e:42:
                    e6:cc:74:ef:a8:54:d0:24:f2:19:fb:b9:5e:1a:c6:
                    0e:04:e7:e5:df:d8:ce:68:80:57:e4:6a:cf:02:ef:
                    7a:7f
                Exponent: 65537 (0x10001)
        X509v3 extensions:
            X509v3 Basic Constraints: 
                CA:FALSE
            X509v3 Subject Key Identifier: 
                49:C1:6B:13:F2:B8:72:7F:97:6B:5A:34:D0:F0:E4:41:37:EC:35:77
            X509v3 Authority Key Identifier: 
                keyid:FF:1F:1F:0E:F4:6E:BB:36:63:FF:5E:9A:F1:3B:D6:4F:78:0D:A1:80
                DirName:/CN=boyson
                serial:07:CD:EA:4E:7F:98:34:2C:F6:34:76:E0:5C:91:D7:70:FC:23:97:B7

            X509v3 Extended Key Usage: 
                TLS Web Client Authentication
            X509v3 Key Usage: 
                Digital Signature
    Signature Algorithm: sha256WithRSAEncryption
         6a:52:c5:a1:9e:6d:42:27:94:dd:e7:87:09:98:40:b1:ae:2c:
         d3:9f:0d:78:d2:aa:2c:23:62:62:72:37:ff:5c:1f:bc:57:05:
         88:79:44:ed:e7:56:f9:68:6e:11:cb:21:ce:4f:3d:30:83:3b:
         39:53:74:99:15:f3:9f:93:3b:d1:2b:b1:15:4b:1a:51:8c:34:
         48:33:9b:3c:33:3f:8f:50:4a:f4:48:ba:a1:b5:5b:53:e7:2d:
         32:08:d7:f7:39:39:a6:e5:bc:48:9d:c4:6d:c4:ee:d3:08:e1:
         d7:ac:d5:bc:82:94:6a:64:87:b7:ae:1b:2b:e2:06:35:71:8f:
         5c:a1:90:a9:72:92:b8:fa:6a:8e:dd:bf:a2:35:fb:3e:fa:57:
         b5:b1:0d:bf:cc:5d:b6:ef:cf:67:54:75:22:ec:bb:62:20:86:
         9e:7e:7b:e4:e8:41:24:71:56:e4:d3:44:c8:0e:c2:4e:a4:86:
         66:41:21:ef:f2:37:73:9d:85:cb:40:1a:ad:b2:f1:bb:ea:fc:
         48:df:ff:61:14:46:c9:ae:bc:50:8f:28:8c:1d:d2:d9:8a:21:
         37:c8:3b:d5:9e:43:b0:b2:af:4d:87:2f:41:4c:26:5d:51:9b:
         8f:bc:d2:da:46:9e:3f:6c:ab:78:99:d0:fc:1d:1d:07:e0:91:
         9a:55:74:58
-----BEGIN CERTIFICATE-----
MIIDWjCCAkKgAwIBAgIRANxszrwJ8lnQoNdwlD+QM+EwDQYJKoZIhvcNAQELBQAw
ETEPMA0GA1UEAwwGYm95c29uMB4XDTIzMDIyMjA5NTgxMFoXDTI1MDUyNzA5NTgx
MFowIDEeMBwGA1UEAwwVUG9uZ3NhdG9ybl9TQVdBTkdLTEFPMIIBIjANBgkqhkiG
9w0BAQEFAAOCAQ8AMIIBCgKCAQEA1TO9bbC9X57R+I9DVC5AuWsKTeFgJEAJo49P
e8A5J4Igi6U7O02N8KDiouEdmJD1TVl/KbvXYIkxom7nPG3JMF8HIbFGYhKwnznO
2fGkPNP70ku2S9JjRkBE/6JFsW59M/3IgFFntgukiv6jtLya58lV9xWe6PNliGTG
rn62n6zE4w1XDLnZ6fqIjS3ANHG3pIAoUt7SVDQ3JCuyESASx0sZmqU5yUkXv2Tv
QyaB/h0csqsPt97uJ0BkffpD4v37mQ36ZTJ5f61ElFAiD6/v5PCXPdK4spOpPPmK
8rHkDkLmzHTvqFTQJPIZ+7leGsYOBOfl39jOaIBX5GrPAu96fwIDAQABo4GdMIGa
MAkGA1UdEwQCMAAwHQYDVR0OBBYEFEnBaxPyuHJ/l2taNNDw5EE37DV3MEwGA1Ud
IwRFMEOAFP8fHw70brs2Y/9emvE71k94DaGAoRWkEzARMQ8wDQYDVQQDDAZib3lz
b26CFAfN6k5/mDQs9jR24FyR13D8I5e3MBMGA1UdJQQMMAoGCCsGAQUFBwMCMAsG
A1UdDwQEAwIHgDANBgkqhkiG9w0BAQsFAAOCAQEAalLFoZ5tQieU3eeHCZhAsa4s
058NeNKqLCNiYnI3/1wfvFcFiHlE7edW+WhuEcshzk89MIM7OVN0mRXzn5M70Sux
FUsaUYw0SDObPDM/j1BK9Ei6obVbU+ctMgjX9zk5puW8SJ3EbcTu0wjh16zVvIKU
amSHt64bK+IGNXGPXKGQqXKSuPpqjt2/ojX7PvpXtbENv8xdtu/PZ1R1Iuy7YiCG
nn575OhBJHFW5NNEyA7CTqSGZkEh7/I3c52Fy0AarbLxu+r8SN//YRRGya68UI8o
jB3S2YohN8g71Z5DsLKvTYcvQUwmXVGbj7zS2kaeP2yreJnQ/B0dB+CRmlV0WA==
-----END CERTIFICATE-----
