Certificate:
    Data:
        Version: 3 (0x2)
        Serial Number:
            e6:81:1e:30:7f:8c:cd:3a:85:63:dc:9e:25:ef:a0:b6
        Signature Algorithm: sha256WithRSAEncryption
        Issuer: CN=boyson
        Validity
            Not Before: Feb 27 04:22:48 2023 GMT
            Not After : Jun  1 04:22:48 2025 GMT
        Subject: CN=Pongsatorn_SAWANGKLAO
        Subject Public Key Info:
            Public Key Algorithm: rsaEncryption
                RSA Public-Key: (2048 bit)
                Modulus:
                    00:cb:19:e6:7d:e6:a1:0c:cf:f1:d5:4e:00:03:73:
                    ba:c7:de:32:45:7e:03:15:03:dd:67:04:2e:41:7b:
                    22:8f:0e:03:07:dc:24:ea:a2:aa:91:b3:7a:5f:86:
                    dd:9c:8a:0b:f0:0f:d1:3e:89:8b:05:fe:52:47:0a:
                    65:c6:29:79:44:8f:0d:3c:ca:63:68:ec:fd:bb:c5:
                    fd:3b:0f:b9:cd:da:6d:3d:eb:eb:7a:50:2e:84:40:
                    61:3e:43:12:52:a5:d5:c8:50:f8:90:82:19:ac:a1:
                    f5:56:2e:7b:60:c0:85:9f:f8:2d:ef:2a:be:f6:c4:
                    39:b7:63:c7:d5:f6:62:70:65:09:09:c4:dc:3b:1f:
                    e3:ce:90:cc:35:ce:16:ff:8d:0f:57:27:f9:61:30:
                    25:7d:42:36:7f:80:4d:ea:a0:d9:7f:c5:cf:63:f3:
                    92:89:b4:e3:6a:d9:ae:4c:09:f5:fd:c7:b1:dd:e4:
                    73:39:34:64:9a:24:98:73:26:a6:a3:db:f0:96:e2:
                    ef:c4:bd:b7:e1:0a:e2:be:47:c1:b1:6c:9d:82:7a:
                    4d:9f:bf:15:e9:a4:c9:37:7c:fb:c5:e3:e3:53:80:
                    14:b5:1a:f5:48:4c:66:09:1e:c3:0c:94:e7:ec:bc:
                    a7:aa:66:02:4c:0f:36:57:f9:9b:f4:7d:f6:1f:02:
                    83:2f
                Exponent: 65537 (0x10001)
        X509v3 extensions:
            X509v3 Basic Constraints: 
                CA:FALSE
            X509v3 Subject Key Identifier: 
                4D:28:ED:89:FC:B4:9B:94:22:A2:5F:03:FD:6D:6E:43:9C:83:3B:31
            X509v3 Authority Key Identifier: 
                keyid:FF:1F:1F:0E:F4:6E:BB:36:63:FF:5E:9A:F1:3B:D6:4F:78:0D:A1:80
                DirName:/CN=boyson
                serial:07:CD:EA:4E:7F:98:34:2C:F6:34:76:E0:5C:91:D7:70:FC:23:97:B7

            X509v3 Extended Key Usage: 
                TLS Web Client Authentication
            X509v3 Key Usage: 
                Digital Signature
    Signature Algorithm: sha256WithRSAEncryption
         6f:48:e4:d3:ea:df:62:2e:87:44:29:17:25:74:7c:53:2b:17:
         77:76:67:fd:7b:d9:bc:08:8b:27:ec:a0:95:c3:10:fd:5b:98:
         09:76:ed:18:0a:4e:82:81:01:ef:be:df:ae:a5:5b:0c:91:e8:
         ea:f5:ca:bb:2e:8a:c7:9a:83:97:f2:db:c8:3b:d2:4c:f7:39:
         8a:a3:7c:0f:28:96:6d:cd:36:d3:9f:61:85:36:1e:8c:58:d0:
         b0:14:8e:fd:99:22:e2:62:0e:45:9f:cd:e9:e0:87:aa:9f:8f:
         50:1b:b8:fc:4c:10:d2:2a:34:5f:b3:c2:28:16:83:3f:34:88:
         33:8d:21:94:bf:67:6a:87:b6:f4:a1:a8:97:3a:65:6d:60:fd:
         1a:70:c4:01:30:2d:10:fa:09:da:1e:ff:93:2e:c4:a7:2b:ea:
         ef:9d:f4:eb:79:6d:fa:2a:01:b1:98:06:52:4c:da:cd:31:42:
         e7:2c:b2:6b:e4:a7:10:24:49:20:c5:11:02:1d:1c:87:19:92:
         da:0f:1a:92:b0:2f:ff:a3:b3:98:c8:d6:8a:40:9c:74:c2:e8:
         07:e2:ae:33:6d:78:3e:75:96:87:81:01:18:ba:33:16:50:0c:
         75:df:17:c9:3d:9a:b5:f9:e0:01:c6:33:1e:0b:3a:e7:9b:15:
         09:eb:b6:6c
-----BEGIN CERTIFICATE-----
MIIDWjCCAkKgAwIBAgIRAOaBHjB/jM06hWPcniXvoLYwDQYJKoZIhvcNAQELBQAw
ETEPMA0GA1UEAwwGYm95c29uMB4XDTIzMDIyNzA0MjI0OFoXDTI1MDYwMTA0MjI0
OFowIDEeMBwGA1UEAwwVUG9uZ3NhdG9ybl9TQVdBTkdLTEFPMIIBIjANBgkqhkiG
9w0BAQEFAAOCAQ8AMIIBCgKCAQEAyxnmfeahDM/x1U4AA3O6x94yRX4DFQPdZwQu
QXsijw4DB9wk6qKqkbN6X4bdnIoL8A/RPomLBf5SRwplxil5RI8NPMpjaOz9u8X9
Ow+5zdptPevrelAuhEBhPkMSUqXVyFD4kIIZrKH1Vi57YMCFn/gt7yq+9sQ5t2PH
1fZicGUJCcTcOx/jzpDMNc4W/40PVyf5YTAlfUI2f4BN6qDZf8XPY/OSibTjatmu
TAn1/cex3eRzOTRkmiSYcyamo9vwluLvxL234QrivkfBsWydgnpNn78V6aTJN3z7
xePjU4AUtRr1SExmCR7DDJTn7LynqmYCTA82V/mb9H32HwKDLwIDAQABo4GdMIGa
MAkGA1UdEwQCMAAwHQYDVR0OBBYEFE0o7Yn8tJuUIqJfA/1tbkOcgzsxMEwGA1Ud
IwRFMEOAFP8fHw70brs2Y/9emvE71k94DaGAoRWkEzARMQ8wDQYDVQQDDAZib3lz
b26CFAfN6k5/mDQs9jR24FyR13D8I5e3MBMGA1UdJQQMMAoGCCsGAQUFBwMCMAsG
A1UdDwQEAwIHgDANBgkqhkiG9w0BAQsFAAOCAQEAb0jk0+rfYi6HRCkXJXR8UysX
d3Zn/XvZvAiLJ+yglcMQ/VuYCXbtGApOgoEB777frqVbDJHo6vXKuy6Kx5qDl/Lb
yDvSTPc5iqN8DyiWbc02059hhTYejFjQsBSO/Zki4mIORZ/N6eCHqp+PUBu4/EwQ
0io0X7PCKBaDPzSIM40hlL9naoe29KGolzplbWD9GnDEATAtEPoJ2h7/ky7Epyvq
753063lt+ioBsZgGUkzazTFC5yyya+SnECRJIMURAh0chxmS2g8akrAv/6OzmMjW
ikCcdMLoB+KuM214PnWWh4EBGLozFlAMdd8XyT2atfngAcYzHgs655sVCeu2bA==
-----END CERTIFICATE-----
