Certificate:
    Data:
        Version: 3 (0x2)
        Serial Number:
            e6:cf:a8:8f:45:46:dc:5a:80:11:ac:87:26:f8:b2:ab
        Signature Algorithm: sha256WithRSAEncryption
        Issuer: CN=boyson
        Validity
            Not Before: Feb 24 09:50:35 2023 GMT
            Not After : May 29 09:50:35 2025 GMT
        Subject: CN=Pongsatorn_SAWANGKLAO
        Subject Public Key Info:
            Public Key Algorithm: rsaEncryption
                RSA Public-Key: (2048 bit)
                Modulus:
                    00:96:58:5e:20:55:77:70:8a:61:21:e4:e0:dd:45:
                    49:34:94:ea:78:24:1e:00:36:44:00:15:9b:7d:d2:
                    74:d1:78:38:d2:c4:33:ec:99:ed:cc:1a:34:2d:da:
                    e8:b0:15:c0:47:a5:79:ac:9f:33:46:17:cd:40:1e:
                    71:28:7d:c9:03:c6:c6:df:07:4c:73:e3:ce:bb:de:
                    b4:26:9d:3d:cf:bb:a7:45:c3:e4:36:33:a6:6f:16:
                    49:3a:68:0c:7d:3b:cc:52:ea:0a:0d:da:95:f3:7e:
                    ad:ba:13:2d:7d:66:0c:39:4e:f8:15:58:5c:72:f5:
                    2e:c9:d9:bc:6d:d5:95:be:a4:32:8e:b1:4a:e5:a8:
                    fd:18:97:13:73:24:d4:36:ee:12:ac:50:96:b7:b7:
                    be:8d:0e:82:ce:fd:0a:9e:15:0e:fb:36:42:60:5f:
                    b0:b4:49:4b:ff:91:7d:27:c0:91:12:53:04:cb:c3:
                    22:a2:00:90:42:bb:bd:bf:02:39:ea:bd:5c:43:e3:
                    38:b5:15:dd:e4:2f:d2:a8:18:c6:aa:69:6f:dd:65:
                    82:f4:06:2a:64:5a:62:00:ea:01:e5:75:81:b5:d9:
                    ff:8d:0b:8a:1e:ea:bb:78:4f:49:1a:b3:d2:6a:60:
                    7e:ed:f3:bd:aa:ef:84:26:19:60:6e:08:62:35:4f:
                    88:d5
                Exponent: 65537 (0x10001)
        X509v3 extensions:
            X509v3 Basic Constraints: 
                CA:FALSE
            X509v3 Subject Key Identifier: 
                81:7E:E9:44:09:64:0F:F5:19:74:25:2F:60:D7:3C:E0:E0:4D:28:AF
            X509v3 Authority Key Identifier: 
                keyid:FF:1F:1F:0E:F4:6E:BB:36:63:FF:5E:9A:F1:3B:D6:4F:78:0D:A1:80
                DirName:/CN=boyson
                serial:07:CD:EA:4E:7F:98:34:2C:F6:34:76:E0:5C:91:D7:70:FC:23:97:B7

            X509v3 Extended Key Usage: 
                TLS Web Client Authentication
            X509v3 Key Usage: 
                Digital Signature
    Signature Algorithm: sha256WithRSAEncryption
         27:26:36:7b:48:55:20:40:64:0c:7b:23:63:4a:63:c5:3a:1f:
         d9:3c:c6:1e:75:6c:dc:cc:89:01:69:82:0e:8f:40:f5:73:ac:
         c1:3a:a2:38:a8:c0:1b:79:cc:3b:13:3e:a0:de:d6:7d:6b:a0:
         45:35:34:aa:c3:86:a7:1f:ce:75:1d:68:67:09:4a:ad:47:32:
         0e:16:6f:66:1e:49:43:27:73:e8:db:90:5f:ba:2e:0a:99:0b:
         db:88:49:06:ed:3c:6b:f4:c1:e7:06:d1:b1:64:b7:fc:ab:ad:
         35:fd:bf:33:fd:da:d8:8d:25:90:2e:09:3a:6f:e1:17:b9:cd:
         06:60:3a:93:4c:c9:4a:75:26:6a:ca:fe:54:b6:15:85:19:d6:
         9c:c6:cf:40:59:e2:a5:fb:fb:ce:34:1f:ff:bd:0e:02:f2:fa:
         c5:8e:eb:95:e3:3d:2d:b5:e9:0b:64:2b:ef:33:c2:77:25:6c:
         d9:f8:cf:04:9a:11:ee:a8:a8:76:1f:28:bb:ad:12:27:f5:38:
         38:44:50:f2:cf:78:11:f9:5d:3e:35:cb:0f:1b:c9:88:60:3f:
         dc:cc:f8:4f:68:02:24:ba:03:4b:53:d8:4d:15:18:d1:90:9d:
         a2:37:37:d1:ef:b6:6a:b8:5d:d4:50:fc:64:a4:08:a0:e0:74:
         9f:69:46:d5
-----BEGIN CERTIFICATE-----
MIIDWjCCAkKgAwIBAgIRAObPqI9FRtxagBGshyb4sqswDQYJKoZIhvcNAQELBQAw
ETEPMA0GA1UEAwwGYm95c29uMB4XDTIzMDIyNDA5NTAzNVoXDTI1MDUyOTA5NTAz
NVowIDEeMBwGA1UEAwwVUG9uZ3NhdG9ybl9TQVdBTkdLTEFPMIIBIjANBgkqhkiG
9w0BAQEFAAOCAQ8AMIIBCgKCAQEAllheIFV3cIphIeTg3UVJNJTqeCQeADZEABWb
fdJ00Xg40sQz7JntzBo0LdrosBXAR6V5rJ8zRhfNQB5xKH3JA8bG3wdMc+POu960
Jp09z7unRcPkNjOmbxZJOmgMfTvMUuoKDdqV836tuhMtfWYMOU74FVhccvUuydm8
bdWVvqQyjrFK5aj9GJcTcyTUNu4SrFCWt7e+jQ6Czv0KnhUO+zZCYF+wtElL/5F9
J8CRElMEy8MiogCQQru9vwI56r1cQ+M4tRXd5C/SqBjGqmlv3WWC9AYqZFpiAOoB
5XWBtdn/jQuKHuq7eE9JGrPSamB+7fO9qu+EJhlgbghiNU+I1QIDAQABo4GdMIGa
MAkGA1UdEwQCMAAwHQYDVR0OBBYEFIF+6UQJZA/1GXQlL2DXPODgTSivMEwGA1Ud
IwRFMEOAFP8fHw70brs2Y/9emvE71k94DaGAoRWkEzARMQ8wDQYDVQQDDAZib3lz
b26CFAfN6k5/mDQs9jR24FyR13D8I5e3MBMGA1UdJQQMMAoGCCsGAQUFBwMCMAsG
A1UdDwQEAwIHgDANBgkqhkiG9w0BAQsFAAOCAQEAJyY2e0hVIEBkDHsjY0pjxTof
2TzGHnVs3MyJAWmCDo9A9XOswTqiOKjAG3nMOxM+oN7WfWugRTU0qsOGpx/OdR1o
ZwlKrUcyDhZvZh5JQydz6NuQX7ouCpkL24hJBu08a/TB5wbRsWS3/KutNf2/M/3a
2I0lkC4JOm/hF7nNBmA6k0zJSnUmasr+VLYVhRnWnMbPQFnipfv7zjQf/70OAvL6
xY7rleM9LbXpC2Qr7zPCdyVs2fjPBJoR7qiodh8ou60SJ/U4OERQ8s94EfldPjXL
DxvJiGA/3Mz4T2gCJLoDS1PYTRUY0ZCdojc30e+2arhd1FD8ZKQIoOB0n2lG1Q==
-----END CERTIFICATE-----
