Certificate:
    Data:
        Version: 3 (0x2)
        Serial Number:
            f5:31:b1:55:46:f4:3c:0a:0a:ab:7d:24:90:f2:77:d2
        Signature Algorithm: sha256WithRSAEncryption
        Issuer: CN=boyson
        Validity
            Not Before: Feb 27 05:57:56 2023 GMT
            Not After : Jun  1 05:57:56 2025 GMT
        Subject: CN=pongsatorn_sawangklao
        Subject Public Key Info:
            Public Key Algorithm: rsaEncryption
                RSA Public-Key: (2048 bit)
                Modulus:
                    00:d3:e1:d5:87:e0:93:65:e0:bb:31:36:34:48:3b:
                    10:13:c2:20:ef:f5:d6:52:52:33:b3:a2:ba:c4:47:
                    e3:3e:b5:90:b9:db:ac:94:de:7d:72:3e:75:c4:e8:
                    43:de:87:c6:29:12:55:86:32:d1:f8:9f:41:38:0d:
                    92:4a:82:39:74:9f:9d:61:72:f8:a4:8c:07:36:c8:
                    5c:1a:42:3e:3a:49:1c:97:39:32:56:57:a0:93:9e:
                    16:66:2e:7e:34:cd:f9:ae:ec:34:6d:7f:a1:3b:9a:
                    c4:34:7b:dd:7e:10:4b:59:a6:62:9a:8f:70:25:42:
                    cf:c9:1f:94:90:1e:17:55:60:77:b6:5d:ec:6a:3b:
                    6a:06:21:cd:c6:0e:7b:a7:fe:fd:38:fc:04:c4:ea:
                    b4:72:c1:d8:a9:55:76:50:54:01:16:c9:12:18:69:
                    02:1e:cf:84:c4:0c:92:41:4d:c4:29:f3:52:e9:44:
                    10:aa:2e:b9:10:e8:71:ca:d7:c2:46:9f:84:61:3e:
                    7c:f3:cc:8b:cf:84:fe:a8:b9:d7:74:fd:37:3e:c9:
                    d7:60:90:88:97:db:1c:20:43:99:1d:b0:e8:92:09:
                    5e:fd:b3:23:11:bd:e7:c1:12:02:56:60:44:d3:77:
                    29:be:92:b9:08:12:0d:29:e6:eb:fa:52:02:73:b9:
                    8b:c5
                Exponent: 65537 (0x10001)
        X509v3 extensions:
            X509v3 Basic Constraints: 
                CA:FALSE
            X509v3 Subject Key Identifier: 
                C8:C3:8E:73:45:32:82:E5:5A:F5:11:C1:E3:40:02:AA:E6:5B:07:CC
            X509v3 Authority Key Identifier: 
                keyid:FF:1F:1F:0E:F4:6E:BB:36:63:FF:5E:9A:F1:3B:D6:4F:78:0D:A1:80
                DirName:/CN=boyson
                serial:07:CD:EA:4E:7F:98:34:2C:F6:34:76:E0:5C:91:D7:70:FC:23:97:B7

            X509v3 Extended Key Usage: 
                TLS Web Client Authentication
            X509v3 Key Usage: 
                Digital Signature
    Signature Algorithm: sha256WithRSAEncryption
         97:84:b6:c0:f2:5f:60:57:63:ad:f4:00:b6:80:e5:82:72:c7:
         af:12:13:97:fb:b9:cf:95:24:96:15:c9:e8:10:cf:44:6c:08:
         1a:03:ae:4a:c1:19:2a:a1:56:78:35:06:80:e0:d8:40:73:5e:
         64:f5:15:7d:12:e7:d2:24:50:fe:2b:3a:ba:05:28:f5:76:d6:
         83:69:ba:40:c6:e5:65:ef:73:a5:4c:17:1d:6f:6a:a8:5d:00:
         f8:13:a5:b9:4f:37:d4:8d:c0:d2:64:60:00:bd:7d:fd:10:9a:
         ea:96:ad:a8:75:32:a7:c1:44:8a:b3:b8:54:01:00:c7:f4:6f:
         bd:41:89:a1:5f:48:0e:9d:2c:5a:c6:88:d1:35:07:23:c3:54:
         2b:aa:32:19:89:bd:ec:3f:33:ad:2d:0e:28:33:d8:31:d7:fb:
         f8:08:e9:3a:a8:f6:f2:6d:ae:f8:7a:7f:8b:03:f9:fb:23:cc:
         7b:c0:4e:14:9c:39:9c:be:16:5c:69:24:fa:f4:76:4b:f8:82:
         4b:fd:3f:58:91:46:d1:5e:9e:22:cd:00:00:be:b6:d0:1c:cd:
         49:70:95:b2:12:70:54:0e:72:d0:6c:06:b5:b9:bc:b9:98:81:
         1c:9e:9a:2d:60:bf:24:36:21:65:13:dd:51:1f:5c:86:b7:bc:
         89:d4:fa:fa
-----BEGIN CERTIFICATE-----
MIIDWjCCAkKgAwIBAgIRAPUxsVVG9DwKCqt9JJDyd9IwDQYJKoZIhvcNAQELBQAw
ETEPMA0GA1UEAwwGYm95c29uMB4XDTIzMDIyNzA1NTc1NloXDTI1MDYwMTA1NTc1
NlowIDEeMBwGA1UEAwwVcG9uZ3NhdG9ybl9zYXdhbmdrbGFvMIIBIjANBgkqhkiG
9w0BAQEFAAOCAQ8AMIIBCgKCAQEA0+HVh+CTZeC7MTY0SDsQE8Ig7/XWUlIzs6K6
xEfjPrWQuduslN59cj51xOhD3ofGKRJVhjLR+J9BOA2SSoI5dJ+dYXL4pIwHNshc
GkI+OkkclzkyVlegk54WZi5+NM35ruw0bX+hO5rENHvdfhBLWaZimo9wJULPyR+U
kB4XVWB3tl3sajtqBiHNxg57p/79OPwExOq0csHYqVV2UFQBFskSGGkCHs+ExAyS
QU3EKfNS6UQQqi65EOhxytfCRp+EYT5888yLz4T+qLnXdP03PsnXYJCIl9scIEOZ
HbDokgle/bMjEb3nwRICVmBE03cpvpK5CBINKebr+lICc7mLxQIDAQABo4GdMIGa
MAkGA1UdEwQCMAAwHQYDVR0OBBYEFMjDjnNFMoLlWvURweNAAqrmWwfMMEwGA1Ud
IwRFMEOAFP8fHw70brs2Y/9emvE71k94DaGAoRWkEzARMQ8wDQYDVQQDDAZib3lz
b26CFAfN6k5/mDQs9jR24FyR13D8I5e3MBMGA1UdJQQMMAoGCCsGAQUFBwMCMAsG
A1UdDwQEAwIHgDANBgkqhkiG9w0BAQsFAAOCAQEAl4S2wPJfYFdjrfQAtoDlgnLH
rxITl/u5z5UklhXJ6BDPRGwIGgOuSsEZKqFWeDUGgODYQHNeZPUVfRLn0iRQ/is6
ugUo9XbWg2m6QMblZe9zpUwXHW9qqF0A+BOluU831I3A0mRgAL19/RCa6patqHUy
p8FEirO4VAEAx/RvvUGJoV9IDp0sWsaI0TUHI8NUK6oyGYm97D8zrS0OKDPYMdf7
+AjpOqj28m2u+Hp/iwP5+yPMe8BOFJw5nL4WXGkk+vR2S/iCS/0/WJFG0V6eIs0A
AL620BzNSXCVshJwVA5y0GwGtbm8uZiBHJ6aLWC/JDYhZRPdUR9chre8idT6+g==
-----END CERTIFICATE-----
